SF:/home/ametel/source/fossil-headers-db/src/commands/mod.rs
FN:446,_RNCNCNCNCNvNtCscwo6F0TH2eV_17fossil_headers_db8commands19process_block_range0000CsaImZPb8KXhW_17fossil_headers_db
FN:453,_RNCNCNCNCNvNtCscwo6F0TH2eV_17fossil_headers_db8commands19process_block_range000s_0CsaImZPb8KXhW_17fossil_headers_db
FN:442,_RNCNCNCNvNtCscwo6F0TH2eV_17fossil_headers_db8commands19process_block_range000CsaImZPb8KXhW_17fossil_headers_db
FN:425,_RNCNCNvNtCscwo6F0TH2eV_17fossil_headers_db8commands14get_last_block00CsaImZPb8KXhW_17fossil_headers_db
FN:440,_RNCNCNvNtCscwo6F0TH2eV_17fossil_headers_db8commands19process_block_range00CsaImZPb8KXhW_17fossil_headers_db
FN:245,_RNCNCNvNtCscwo6F0TH2eV_17fossil_headers_db8commands21process_missing_block00CsaImZPb8KXhW_17fossil_headers_db
FN:251,_RNCNCNvNtCscwo6F0TH2eV_17fossil_headers_db8commands21process_missing_block0s_0CsaImZPb8KXhW_17fossil_headers_db
FN:83,_RNCNCNvNtCscwo6F0TH2eV_17fossil_headers_db8commands9fill_gaps00CsaImZPb8KXhW_17fossil_headers_db
FN:272,_RNCNvNtCscwo6F0TH2eV_17fossil_headers_db8commands11update_from0CsaImZPb8KXhW_17fossil_headers_db
FN:260,_RNCNvNtCscwo6F0TH2eV_17fossil_headers_db8commands13get_range_end0CsaImZPb8KXhW_17fossil_headers_db
FN:364,_RNCNvNtCscwo6F0TH2eV_17fossil_headers_db8commands13process_block0CsaImZPb8KXhW_17fossil_headers_db
FN:327,_RNCNvNtCscwo6F0TH2eV_17fossil_headers_db8commands13update_blocks0CsaImZPb8KXhW_17fossil_headers_db
FN:135,_RNCNvNtCscwo6F0TH2eV_17fossil_headers_db8commands14fill_null_rows0CsaImZPb8KXhW_17fossil_headers_db
FN:422,_RNCNvNtCscwo6F0TH2eV_17fossil_headers_db8commands14get_last_block0CsaImZPb8KXhW_17fossil_headers_db
FN:290,_RNCNvNtCscwo6F0TH2eV_17fossil_headers_db8commands19chain_update_blocks0CsaImZPb8KXhW_17fossil_headers_db
FN:438,_RNCNvNtCscwo6F0TH2eV_17fossil_headers_db8commands19process_block_range0CsaImZPb8KXhW_17fossil_headers_db
FN:151,_RNCNvNtCscwo6F0TH2eV_17fossil_headers_db8commands19process_null_blocks0CsaImZPb8KXhW_17fossil_headers_db
FN:216,_RNCNvNtCscwo6F0TH2eV_17fossil_headers_db8commands21process_missing_block0CsaImZPb8KXhW_17fossil_headers_db
FN:164,_RNCNvNtCscwo6F0TH2eV_17fossil_headers_db8commands21retry_block_retrieval0CsaImZPb8KXhW_17fossil_headers_db
FN:415,_RNCNvNtCscwo6F0TH2eV_17fossil_headers_db8commands23get_first_missing_block0CsaImZPb8KXhW_17fossil_headers_db
FN:382,_RNCNvNtCscwo6F0TH2eV_17fossil_headers_db8commands24attempt_block_processing0CsaImZPb8KXhW_17fossil_headers_db
FN:208,_RNCNvNtCscwo6F0TH2eV_17fossil_headers_db8commands25apply_exponential_backoff0CsaImZPb8KXhW_17fossil_headers_db
FN:491,_RNCNvNtCscwo6F0TH2eV_17fossil_headers_db8commands28apply_backpressure_if_needed0CsaImZPb8KXhW_17fossil_headers_db
FN:99,_RNCNvNtCscwo6F0TH2eV_17fossil_headers_db8commands28fill_missing_blocks_in_range0CsaImZPb8KXhW_17fossil_headers_db
FN:82,_RNCNvNtCscwo6F0TH2eV_17fossil_headers_db8commands9fill_gaps0CsaImZPb8KXhW_17fossil_headers_db
FN:267,_RNvNtCscwo6F0TH2eV_17fossil_headers_db8commands11update_from
FN:260,_RNvNtCscwo6F0TH2eV_17fossil_headers_db8commands13get_range_end
FN:364,_RNvNtCscwo6F0TH2eV_17fossil_headers_db8commands13process_block
FN:322,_RNvNtCscwo6F0TH2eV_17fossil_headers_db8commands13update_blocks
FN:131,_RNvNtCscwo6F0TH2eV_17fossil_headers_db8commands14fill_null_rows
FN:422,_RNvNtCscwo6F0TH2eV_17fossil_headers_db8commands14get_last_block
FN:200,_RNvNtCscwo6F0TH2eV_17fossil_headers_db8commands19calculate_range_end
FN:285,_RNvNtCscwo6F0TH2eV_17fossil_headers_db8commands19chain_update_blocks
FN:434,_RNvNtCscwo6F0TH2eV_17fossil_headers_db8commands19process_block_range
FN:148,_RNvNtCscwo6F0TH2eV_17fossil_headers_db8commands19process_null_blocks
FN:406,_RNvNtCscwo6F0TH2eV_17fossil_headers_db8commands20log_success_if_retry
FN:213,_RNvNtCscwo6F0TH2eV_17fossil_headers_db8commands21process_missing_block
FN:164,_RNvNtCscwo6F0TH2eV_17fossil_headers_db8commands21retry_block_retrieval
FN:415,_RNvNtCscwo6F0TH2eV_17fossil_headers_db8commands23get_first_missing_block
FN:521,_RNvNtCscwo6F0TH2eV_17fossil_headers_db8commands23handle_batch_completion
FN:379,_RNvNtCscwo6F0TH2eV_17fossil_headers_db8commands24attempt_block_processing
FN:208,_RNvNtCscwo6F0TH2eV_17fossil_headers_db8commands25apply_exponential_backoff
FN:487,_RNvNtCscwo6F0TH2eV_17fossil_headers_db8commands28apply_backpressure_if_needed
FN:95,_RNvNtCscwo6F0TH2eV_17fossil_headers_db8commands28fill_missing_blocks_in_range
FN:78,_RNvNtCscwo6F0TH2eV_17fossil_headers_db8commands9fill_gaps
FN:446,_RNCNCNCNCNvNtCscwo6F0TH2eV_17fossil_headers_db8commands19process_block_range0000Bb_
FN:453,_RNCNCNCNCNvNtCscwo6F0TH2eV_17fossil_headers_db8commands19process_block_range000s_0Bb_
FN:442,_RNCNCNCNvNtCscwo6F0TH2eV_17fossil_headers_db8commands19process_block_range000B9_
FN:425,_RNCNCNvNtCscwo6F0TH2eV_17fossil_headers_db8commands14get_last_block00B7_
FN:440,_RNCNCNvNtCscwo6F0TH2eV_17fossil_headers_db8commands19process_block_range00B7_
FN:245,_RNCNCNvNtCscwo6F0TH2eV_17fossil_headers_db8commands21process_missing_block00B7_
FN:251,_RNCNCNvNtCscwo6F0TH2eV_17fossil_headers_db8commands21process_missing_block0s_0B7_
FN:83,_RNCNCNvNtCscwo6F0TH2eV_17fossil_headers_db8commands9fill_gaps00B7_
FN:272,_RNCNvNtCscwo6F0TH2eV_17fossil_headers_db8commands11update_from0B5_
FN:260,_RNCNvNtCscwo6F0TH2eV_17fossil_headers_db8commands13get_range_end0B5_
FN:364,_RNCNvNtCscwo6F0TH2eV_17fossil_headers_db8commands13process_block0B5_
FN:327,_RNCNvNtCscwo6F0TH2eV_17fossil_headers_db8commands13update_blocks0B5_
FN:135,_RNCNvNtCscwo6F0TH2eV_17fossil_headers_db8commands14fill_null_rows0B5_
FN:422,_RNCNvNtCscwo6F0TH2eV_17fossil_headers_db8commands14get_last_block0B5_
FN:290,_RNCNvNtCscwo6F0TH2eV_17fossil_headers_db8commands19chain_update_blocks0B5_
FN:438,_RNCNvNtCscwo6F0TH2eV_17fossil_headers_db8commands19process_block_range0B5_
FN:151,_RNCNvNtCscwo6F0TH2eV_17fossil_headers_db8commands19process_null_blocks0B5_
FN:216,_RNCNvNtCscwo6F0TH2eV_17fossil_headers_db8commands21process_missing_block0B5_
FN:164,_RNCNvNtCscwo6F0TH2eV_17fossil_headers_db8commands21retry_block_retrieval0B5_
FN:415,_RNCNvNtCscwo6F0TH2eV_17fossil_headers_db8commands23get_first_missing_block0B5_
FN:382,_RNCNvNtCscwo6F0TH2eV_17fossil_headers_db8commands24attempt_block_processing0B5_
FN:208,_RNCNvNtCscwo6F0TH2eV_17fossil_headers_db8commands25apply_exponential_backoff0B5_
FN:491,_RNCNvNtCscwo6F0TH2eV_17fossil_headers_db8commands28apply_backpressure_if_needed0B5_
FN:99,_RNCNvNtCscwo6F0TH2eV_17fossil_headers_db8commands28fill_missing_blocks_in_range0B5_
FN:82,_RNCNvNtCscwo6F0TH2eV_17fossil_headers_db8commands9fill_gaps0B5_
FN:446,_RNCNCNCNCNvNtCs5Xp1JEPGtUd_17fossil_headers_db8commands19process_block_range0000Bb_
FN:453,_RNCNCNCNCNvNtCs5Xp1JEPGtUd_17fossil_headers_db8commands19process_block_range000s_0Bb_
FN:442,_RNCNCNCNvNtCs5Xp1JEPGtUd_17fossil_headers_db8commands19process_block_range000B9_
FN:425,_RNCNCNvNtCs5Xp1JEPGtUd_17fossil_headers_db8commands14get_last_block00B7_
FN:440,_RNCNCNvNtCs5Xp1JEPGtUd_17fossil_headers_db8commands19process_block_range00B7_
FN:245,_RNCNCNvNtCs5Xp1JEPGtUd_17fossil_headers_db8commands21process_missing_block00B7_
FN:251,_RNCNCNvNtCs5Xp1JEPGtUd_17fossil_headers_db8commands21process_missing_block0s_0B7_
FN:83,_RNCNCNvNtCs5Xp1JEPGtUd_17fossil_headers_db8commands9fill_gaps00B7_
FN:272,_RNCNvNtCs5Xp1JEPGtUd_17fossil_headers_db8commands11update_from0B5_
FN:260,_RNCNvNtCs5Xp1JEPGtUd_17fossil_headers_db8commands13get_range_end0B5_
FN:364,_RNCNvNtCs5Xp1JEPGtUd_17fossil_headers_db8commands13process_block0B5_
FN:327,_RNCNvNtCs5Xp1JEPGtUd_17fossil_headers_db8commands13update_blocks0B5_
FN:135,_RNCNvNtCs5Xp1JEPGtUd_17fossil_headers_db8commands14fill_null_rows0B5_
FN:422,_RNCNvNtCs5Xp1JEPGtUd_17fossil_headers_db8commands14get_last_block0B5_
FN:290,_RNCNvNtCs5Xp1JEPGtUd_17fossil_headers_db8commands19chain_update_blocks0B5_
FN:438,_RNCNvNtCs5Xp1JEPGtUd_17fossil_headers_db8commands19process_block_range0B5_
FN:151,_RNCNvNtCs5Xp1JEPGtUd_17fossil_headers_db8commands19process_null_blocks0B5_
FN:216,_RNCNvNtCs5Xp1JEPGtUd_17fossil_headers_db8commands21process_missing_block0B5_
FN:164,_RNCNvNtCs5Xp1JEPGtUd_17fossil_headers_db8commands21retry_block_retrieval0B5_
FN:415,_RNCNvNtCs5Xp1JEPGtUd_17fossil_headers_db8commands23get_first_missing_block0B5_
FN:382,_RNCNvNtCs5Xp1JEPGtUd_17fossil_headers_db8commands24attempt_block_processing0B5_
FN:208,_RNCNvNtCs5Xp1JEPGtUd_17fossil_headers_db8commands25apply_exponential_backoff0B5_
FN:491,_RNCNvNtCs5Xp1JEPGtUd_17fossil_headers_db8commands28apply_backpressure_if_needed0B5_
FN:99,_RNCNvNtCs5Xp1JEPGtUd_17fossil_headers_db8commands28fill_missing_blocks_in_range0B5_
FN:82,_RNCNvNtCs5Xp1JEPGtUd_17fossil_headers_db8commands9fill_gaps0B5_
FN:267,_RNvNtCs5Xp1JEPGtUd_17fossil_headers_db8commands11update_from
FN:260,_RNvNtCs5Xp1JEPGtUd_17fossil_headers_db8commands13get_range_end
FN:364,_RNvNtCs5Xp1JEPGtUd_17fossil_headers_db8commands13process_block
FN:322,_RNvNtCs5Xp1JEPGtUd_17fossil_headers_db8commands13update_blocks
FN:131,_RNvNtCs5Xp1JEPGtUd_17fossil_headers_db8commands14fill_null_rows
FN:422,_RNvNtCs5Xp1JEPGtUd_17fossil_headers_db8commands14get_last_block
FN:200,_RNvNtCs5Xp1JEPGtUd_17fossil_headers_db8commands19calculate_range_end
FN:285,_RNvNtCs5Xp1JEPGtUd_17fossil_headers_db8commands19chain_update_blocks
FN:434,_RNvNtCs5Xp1JEPGtUd_17fossil_headers_db8commands19process_block_range
FN:148,_RNvNtCs5Xp1JEPGtUd_17fossil_headers_db8commands19process_null_blocks
FN:406,_RNvNtCs5Xp1JEPGtUd_17fossil_headers_db8commands20log_success_if_retry
FN:213,_RNvNtCs5Xp1JEPGtUd_17fossil_headers_db8commands21process_missing_block
FN:164,_RNvNtCs5Xp1JEPGtUd_17fossil_headers_db8commands21retry_block_retrieval
FN:415,_RNvNtCs5Xp1JEPGtUd_17fossil_headers_db8commands23get_first_missing_block
FN:521,_RNvNtCs5Xp1JEPGtUd_17fossil_headers_db8commands23handle_batch_completion
FN:379,_RNvNtCs5Xp1JEPGtUd_17fossil_headers_db8commands24attempt_block_processing
FN:208,_RNvNtCs5Xp1JEPGtUd_17fossil_headers_db8commands25apply_exponential_backoff
FN:487,_RNvNtCs5Xp1JEPGtUd_17fossil_headers_db8commands28apply_backpressure_if_needed
FN:95,_RNvNtCs5Xp1JEPGtUd_17fossil_headers_db8commands28fill_missing_blocks_in_range
FN:78,_RNvNtCs5Xp1JEPGtUd_17fossil_headers_db8commands9fill_gaps
FNDA:0,_RNCNCNCNCNvNtCscwo6F0TH2eV_17fossil_headers_db8commands19process_block_range0000CsaImZPb8KXhW_17fossil_headers_db
FNDA:0,_RNCNCNCNCNvNtCscwo6F0TH2eV_17fossil_headers_db8commands19process_block_range000s_0CsaImZPb8KXhW_17fossil_headers_db
FNDA:0,_RNCNCNCNvNtCscwo6F0TH2eV_17fossil_headers_db8commands19process_block_range000CsaImZPb8KXhW_17fossil_headers_db
FNDA:0,_RNCNCNvNtCscwo6F0TH2eV_17fossil_headers_db8commands14get_last_block00CsaImZPb8KXhW_17fossil_headers_db
FNDA:0,_RNCNCNvNtCscwo6F0TH2eV_17fossil_headers_db8commands19process_block_range00CsaImZPb8KXhW_17fossil_headers_db
FNDA:0,_RNCNCNvNtCscwo6F0TH2eV_17fossil_headers_db8commands21process_missing_block00CsaImZPb8KXhW_17fossil_headers_db
FNDA:0,_RNCNCNvNtCscwo6F0TH2eV_17fossil_headers_db8commands21process_missing_block0s_0CsaImZPb8KXhW_17fossil_headers_db
FNDA:0,_RNCNCNvNtCscwo6F0TH2eV_17fossil_headers_db8commands9fill_gaps00CsaImZPb8KXhW_17fossil_headers_db
FNDA:0,_RNCNvNtCscwo6F0TH2eV_17fossil_headers_db8commands11update_from0CsaImZPb8KXhW_17fossil_headers_db
FNDA:0,_RNCNvNtCscwo6F0TH2eV_17fossil_headers_db8commands13get_range_end0CsaImZPb8KXhW_17fossil_headers_db
FNDA:0,_RNCNvNtCscwo6F0TH2eV_17fossil_headers_db8commands13process_block0CsaImZPb8KXhW_17fossil_headers_db
FNDA:0,_RNCNvNtCscwo6F0TH2eV_17fossil_headers_db8commands13update_blocks0CsaImZPb8KXhW_17fossil_headers_db
FNDA:0,_RNCNvNtCscwo6F0TH2eV_17fossil_headers_db8commands14fill_null_rows0CsaImZPb8KXhW_17fossil_headers_db
FNDA:0,_RNCNvNtCscwo6F0TH2eV_17fossil_headers_db8commands14get_last_block0CsaImZPb8KXhW_17fossil_headers_db
FNDA:0,_RNCNvNtCscwo6F0TH2eV_17fossil_headers_db8commands19chain_update_blocks0CsaImZPb8KXhW_17fossil_headers_db
FNDA:0,_RNCNvNtCscwo6F0TH2eV_17fossil_headers_db8commands19process_block_range0CsaImZPb8KXhW_17fossil_headers_db
FNDA:0,_RNCNvNtCscwo6F0TH2eV_17fossil_headers_db8commands19process_null_blocks0CsaImZPb8KXhW_17fossil_headers_db
FNDA:0,_RNCNvNtCscwo6F0TH2eV_17fossil_headers_db8commands21process_missing_block0CsaImZPb8KXhW_17fossil_headers_db
FNDA:0,_RNCNvNtCscwo6F0TH2eV_17fossil_headers_db8commands21retry_block_retrieval0CsaImZPb8KXhW_17fossil_headers_db
FNDA:0,_RNCNvNtCscwo6F0TH2eV_17fossil_headers_db8commands23get_first_missing_block0CsaImZPb8KXhW_17fossil_headers_db
FNDA:0,_RNCNvNtCscwo6F0TH2eV_17fossil_headers_db8commands24attempt_block_processing0CsaImZPb8KXhW_17fossil_headers_db
FNDA:0,_RNCNvNtCscwo6F0TH2eV_17fossil_headers_db8commands25apply_exponential_backoff0CsaImZPb8KXhW_17fossil_headers_db
FNDA:0,_RNCNvNtCscwo6F0TH2eV_17fossil_headers_db8commands28apply_backpressure_if_needed0CsaImZPb8KXhW_17fossil_headers_db
FNDA:0,_RNCNvNtCscwo6F0TH2eV_17fossil_headers_db8commands28fill_missing_blocks_in_range0CsaImZPb8KXhW_17fossil_headers_db
FNDA:0,_RNCNvNtCscwo6F0TH2eV_17fossil_headers_db8commands9fill_gaps0CsaImZPb8KXhW_17fossil_headers_db
FNDA:0,_RNvNtCscwo6F0TH2eV_17fossil_headers_db8commands11update_from
FNDA:0,_RNvNtCscwo6F0TH2eV_17fossil_headers_db8commands13get_range_end
FNDA:0,_RNvNtCscwo6F0TH2eV_17fossil_headers_db8commands13process_block
FNDA:0,_RNvNtCscwo6F0TH2eV_17fossil_headers_db8commands13update_blocks
FNDA:0,_RNvNtCscwo6F0TH2eV_17fossil_headers_db8commands14fill_null_rows
FNDA:0,_RNvNtCscwo6F0TH2eV_17fossil_headers_db8commands14get_last_block
FNDA:0,_RNvNtCscwo6F0TH2eV_17fossil_headers_db8commands19calculate_range_end
FNDA:0,_RNvNtCscwo6F0TH2eV_17fossil_headers_db8commands19chain_update_blocks
FNDA:0,_RNvNtCscwo6F0TH2eV_17fossil_headers_db8commands19process_block_range
FNDA:0,_RNvNtCscwo6F0TH2eV_17fossil_headers_db8commands19process_null_blocks
FNDA:0,_RNvNtCscwo6F0TH2eV_17fossil_headers_db8commands20log_success_if_retry
FNDA:0,_RNvNtCscwo6F0TH2eV_17fossil_headers_db8commands21process_missing_block
FNDA:0,_RNvNtCscwo6F0TH2eV_17fossil_headers_db8commands21retry_block_retrieval
FNDA:0,_RNvNtCscwo6F0TH2eV_17fossil_headers_db8commands23get_first_missing_block
FNDA:0,_RNvNtCscwo6F0TH2eV_17fossil_headers_db8commands23handle_batch_completion
FNDA:0,_RNvNtCscwo6F0TH2eV_17fossil_headers_db8commands24attempt_block_processing
FNDA:0,_RNvNtCscwo6F0TH2eV_17fossil_headers_db8commands25apply_exponential_backoff
FNDA:0,_RNvNtCscwo6F0TH2eV_17fossil_headers_db8commands28apply_backpressure_if_needed
FNDA:0,_RNvNtCscwo6F0TH2eV_17fossil_headers_db8commands28fill_missing_blocks_in_range
FNDA:0,_RNvNtCscwo6F0TH2eV_17fossil_headers_db8commands9fill_gaps
FNDA:0,_RNCNCNCNCNvNtCscwo6F0TH2eV_17fossil_headers_db8commands19process_block_range0000Bb_
FNDA:0,_RNCNCNCNCNvNtCscwo6F0TH2eV_17fossil_headers_db8commands19process_block_range000s_0Bb_
FNDA:0,_RNCNCNCNvNtCscwo6F0TH2eV_17fossil_headers_db8commands19process_block_range000B9_
FNDA:0,_RNCNCNvNtCscwo6F0TH2eV_17fossil_headers_db8commands14get_last_block00B7_
FNDA:0,_RNCNCNvNtCscwo6F0TH2eV_17fossil_headers_db8commands19process_block_range00B7_
FNDA:0,_RNCNCNvNtCscwo6F0TH2eV_17fossil_headers_db8commands21process_missing_block00B7_
FNDA:0,_RNCNCNvNtCscwo6F0TH2eV_17fossil_headers_db8commands21process_missing_block0s_0B7_
FNDA:0,_RNCNCNvNtCscwo6F0TH2eV_17fossil_headers_db8commands9fill_gaps00B7_
FNDA:0,_RNCNvNtCscwo6F0TH2eV_17fossil_headers_db8commands11update_from0B5_
FNDA:0,_RNCNvNtCscwo6F0TH2eV_17fossil_headers_db8commands13get_range_end0B5_
FNDA:0,_RNCNvNtCscwo6F0TH2eV_17fossil_headers_db8commands13process_block0B5_
FNDA:0,_RNCNvNtCscwo6F0TH2eV_17fossil_headers_db8commands13update_blocks0B5_
FNDA:0,_RNCNvNtCscwo6F0TH2eV_17fossil_headers_db8commands14fill_null_rows0B5_
FNDA:0,_RNCNvNtCscwo6F0TH2eV_17fossil_headers_db8commands14get_last_block0B5_
FNDA:0,_RNCNvNtCscwo6F0TH2eV_17fossil_headers_db8commands19chain_update_blocks0B5_
FNDA:0,_RNCNvNtCscwo6F0TH2eV_17fossil_headers_db8commands19process_block_range0B5_
FNDA:0,_RNCNvNtCscwo6F0TH2eV_17fossil_headers_db8commands19process_null_blocks0B5_
FNDA:0,_RNCNvNtCscwo6F0TH2eV_17fossil_headers_db8commands21process_missing_block0B5_
FNDA:0,_RNCNvNtCscwo6F0TH2eV_17fossil_headers_db8commands21retry_block_retrieval0B5_
FNDA:0,_RNCNvNtCscwo6F0TH2eV_17fossil_headers_db8commands23get_first_missing_block0B5_
FNDA:0,_RNCNvNtCscwo6F0TH2eV_17fossil_headers_db8commands24attempt_block_processing0B5_
FNDA:0,_RNCNvNtCscwo6F0TH2eV_17fossil_headers_db8commands25apply_exponential_backoff0B5_
FNDA:0,_RNCNvNtCscwo6F0TH2eV_17fossil_headers_db8commands28apply_backpressure_if_needed0B5_
FNDA:0,_RNCNvNtCscwo6F0TH2eV_17fossil_headers_db8commands28fill_missing_blocks_in_range0B5_
FNDA:0,_RNCNvNtCscwo6F0TH2eV_17fossil_headers_db8commands9fill_gaps0B5_
FNDA:0,_RNCNCNCNCNvNtCs5Xp1JEPGtUd_17fossil_headers_db8commands19process_block_range0000Bb_
FNDA:0,_RNCNCNCNCNvNtCs5Xp1JEPGtUd_17fossil_headers_db8commands19process_block_range000s_0Bb_
FNDA:0,_RNCNCNCNvNtCs5Xp1JEPGtUd_17fossil_headers_db8commands19process_block_range000B9_
FNDA:0,_RNCNCNvNtCs5Xp1JEPGtUd_17fossil_headers_db8commands14get_last_block00B7_
FNDA:0,_RNCNCNvNtCs5Xp1JEPGtUd_17fossil_headers_db8commands19process_block_range00B7_
FNDA:0,_RNCNCNvNtCs5Xp1JEPGtUd_17fossil_headers_db8commands21process_missing_block00B7_
FNDA:0,_RNCNCNvNtCs5Xp1JEPGtUd_17fossil_headers_db8commands21process_missing_block0s_0B7_
FNDA:0,_RNCNCNvNtCs5Xp1JEPGtUd_17fossil_headers_db8commands9fill_gaps00B7_
FNDA:0,_RNCNvNtCs5Xp1JEPGtUd_17fossil_headers_db8commands11update_from0B5_
FNDA:0,_RNCNvNtCs5Xp1JEPGtUd_17fossil_headers_db8commands13get_range_end0B5_
FNDA:0,_RNCNvNtCs5Xp1JEPGtUd_17fossil_headers_db8commands13process_block0B5_
FNDA:0,_RNCNvNtCs5Xp1JEPGtUd_17fossil_headers_db8commands13update_blocks0B5_
FNDA:0,_RNCNvNtCs5Xp1JEPGtUd_17fossil_headers_db8commands14fill_null_rows0B5_
FNDA:0,_RNCNvNtCs5Xp1JEPGtUd_17fossil_headers_db8commands14get_last_block0B5_
FNDA:0,_RNCNvNtCs5Xp1JEPGtUd_17fossil_headers_db8commands19chain_update_blocks0B5_
FNDA:0,_RNCNvNtCs5Xp1JEPGtUd_17fossil_headers_db8commands19process_block_range0B5_
FNDA:0,_RNCNvNtCs5Xp1JEPGtUd_17fossil_headers_db8commands19process_null_blocks0B5_
FNDA:0,_RNCNvNtCs5Xp1JEPGtUd_17fossil_headers_db8commands21process_missing_block0B5_
FNDA:0,_RNCNvNtCs5Xp1JEPGtUd_17fossil_headers_db8commands21retry_block_retrieval0B5_
FNDA:0,_RNCNvNtCs5Xp1JEPGtUd_17fossil_headers_db8commands23get_first_missing_block0B5_
FNDA:0,_RNCNvNtCs5Xp1JEPGtUd_17fossil_headers_db8commands24attempt_block_processing0B5_
FNDA:0,_RNCNvNtCs5Xp1JEPGtUd_17fossil_headers_db8commands25apply_exponential_backoff0B5_
FNDA:0,_RNCNvNtCs5Xp1JEPGtUd_17fossil_headers_db8commands28apply_backpressure_if_needed0B5_
FNDA:0,_RNCNvNtCs5Xp1JEPGtUd_17fossil_headers_db8commands28fill_missing_blocks_in_range0B5_
FNDA:0,_RNCNvNtCs5Xp1JEPGtUd_17fossil_headers_db8commands9fill_gaps0B5_
FNDA:0,_RNvNtCs5Xp1JEPGtUd_17fossil_headers_db8commands11update_from
FNDA:0,_RNvNtCs5Xp1JEPGtUd_17fossil_headers_db8commands13get_range_end
FNDA:0,_RNvNtCs5Xp1JEPGtUd_17fossil_headers_db8commands13process_block
FNDA:0,_RNvNtCs5Xp1JEPGtUd_17fossil_headers_db8commands13update_blocks
FNDA:0,_RNvNtCs5Xp1JEPGtUd_17fossil_headers_db8commands14fill_null_rows
FNDA:0,_RNvNtCs5Xp1JEPGtUd_17fossil_headers_db8commands14get_last_block
FNDA:0,_RNvNtCs5Xp1JEPGtUd_17fossil_headers_db8commands19calculate_range_end
FNDA:0,_RNvNtCs5Xp1JEPGtUd_17fossil_headers_db8commands19chain_update_blocks
FNDA:0,_RNvNtCs5Xp1JEPGtUd_17fossil_headers_db8commands19process_block_range
FNDA:0,_RNvNtCs5Xp1JEPGtUd_17fossil_headers_db8commands19process_null_blocks
FNDA:0,_RNvNtCs5Xp1JEPGtUd_17fossil_headers_db8commands20log_success_if_retry
FNDA:0,_RNvNtCs5Xp1JEPGtUd_17fossil_headers_db8commands21process_missing_block
FNDA:0,_RNvNtCs5Xp1JEPGtUd_17fossil_headers_db8commands21retry_block_retrieval
FNDA:0,_RNvNtCs5Xp1JEPGtUd_17fossil_headers_db8commands23get_first_missing_block
FNDA:0,_RNvNtCs5Xp1JEPGtUd_17fossil_headers_db8commands23handle_batch_completion
FNDA:0,_RNvNtCs5Xp1JEPGtUd_17fossil_headers_db8commands24attempt_block_processing
FNDA:0,_RNvNtCs5Xp1JEPGtUd_17fossil_headers_db8commands25apply_exponential_backoff
FNDA:0,_RNvNtCs5Xp1JEPGtUd_17fossil_headers_db8commands28apply_backpressure_if_needed
FNDA:0,_RNvNtCs5Xp1JEPGtUd_17fossil_headers_db8commands28fill_missing_blocks_in_range
FNDA:0,_RNvNtCs5Xp1JEPGtUd_17fossil_headers_db8commands9fill_gaps
FNF:45
FNH:0
DA:78,0
DA:79,0
DA:80,0
DA:81,0
DA:82,0
DA:83,0
DA:84,0
DA:86,0
DA:87,0
DA:88,0
DA:89,0
DA:91,0
DA:92,0
DA:93,0
DA:95,0
DA:96,0
DA:97,0
DA:98,0
DA:99,0
DA:101,0
DA:102,0
DA:103,0
DA:104,0
DA:105,0
DA:106,0
DA:107,0
DA:109,0
DA:110,0
DA:112,0
DA:113,0
DA:114,0
DA:116,0
DA:117,0
DA:118,0
DA:120,0
DA:121,0
DA:124,0
DA:128,0
DA:129,0
DA:131,0
DA:132,0
DA:133,0
DA:134,0
DA:135,0
DA:136,0
DA:138,0
DA:139,0
DA:141,0
DA:143,0
DA:145,0
DA:146,0
DA:148,0
DA:149,0
DA:150,0
DA:151,0
DA:152,0
DA:153,0
DA:154,0
DA:158,0
DA:159,0
DA:161,0
DA:162,0
DA:164,0
DA:165,0
DA:166,0
DA:167,0
DA:168,0
DA:169,0
DA:170,0
DA:171,0
DA:173,0
DA:175,0
DA:176,0
DA:177,0
DA:178,0
DA:182,0
DA:183,0
DA:184,0
DA:185,0
DA:186,0
DA:187,0
DA:191,0
DA:194,0
DA:195,0
DA:196,0
DA:197,0
DA:198,0
DA:200,0
DA:201,0
DA:202,0
DA:203,0
DA:204,0
DA:206,0
DA:208,0
DA:209,0
DA:210,0
DA:211,0
DA:213,0
DA:214,0
DA:215,0
DA:216,0
DA:217,0
DA:218,0
DA:219,0
DA:220,0
DA:221,0
DA:222,0
DA:223,0
DA:224,0
DA:225,0
DA:227,0
DA:229,0
DA:230,0
DA:231,0
DA:232,0
DA:233,0
DA:236,0
DA:239,0
DA:240,0
DA:244,0
DA:245,0
DA:246,0
DA:247,0
DA:248,0
DA:249,0
DA:250,0
DA:251,0
DA:252,0
DA:253,0
DA:254,0
DA:255,0
DA:256,0
DA:258,0
DA:260,0
DA:261,0
DA:262,0
DA:263,0
DA:265,0
DA:267,0
DA:268,0
DA:269,0
DA:270,0
DA:271,0
DA:272,0
DA:273,0
DA:274,0
DA:276,0
DA:277,0
DA:279,0
DA:280,0
DA:281,0
DA:283,0
DA:285,0
DA:286,0
DA:287,0
DA:288,0
DA:289,0
DA:290,0
DA:292,0
DA:293,0
DA:294,0
DA:295,0
DA:297,0
DA:300,0
DA:301,0
DA:302,0
DA:304,0
DA:305,0
DA:306,0
DA:307,0
DA:308,0
DA:309,0
DA:310,0
DA:311,0
DA:312,0
DA:315,0
DA:319,0
DA:320,0
DA:322,0
DA:323,0
DA:324,0
DA:325,0
DA:326,0
DA:327,0
DA:328,0
DA:330,0
DA:332,0
DA:333,0
DA:335,0
DA:336,0
DA:337,0
DA:338,0
DA:340,0
DA:342,0
DA:343,0
DA:345,0
DA:346,0
DA:348,0
DA:349,0
DA:350,0
DA:352,0
DA:353,0
DA:355,0
DA:356,0
DA:357,0
DA:359,0
DA:361,0
DA:362,0
DA:364,0
DA:365,0
DA:366,0
DA:367,0
DA:368,0
DA:370,0
DA:373,0
DA:374,0
DA:375,0
DA:376,0
DA:377,0
DA:379,0
DA:380,0
DA:381,0
DA:382,0
DA:383,0
DA:384,0
DA:385,0
DA:386,0
DA:387,0
DA:390,0
DA:394,0
DA:396,0
DA:397,0
DA:399,0
DA:400,0
DA:401,0
DA:404,0
DA:406,0
DA:407,0
DA:408,0
DA:409,0
DA:410,0
DA:412,0
DA:413,0
DA:415,0
DA:416,0
DA:417,0
DA:418,0
DA:420,0
DA:422,0
DA:423,0
DA:425,0
DA:426,0
DA:427,0
DA:429,0
DA:431,0
DA:432,0
DA:434,0
DA:435,0
DA:436,0
DA:437,0
DA:438,0
DA:439,0
DA:440,0
DA:441,0
DA:442,0
DA:443,0
DA:444,0
DA:445,0
DA:446,0
DA:448,0
DA:449,0
DA:450,0
DA:451,0
DA:452,0
DA:453,0
DA:454,0
DA:455,0
DA:457,0
DA:458,0
DA:459,0
DA:460,0
DA:462,0
DA:464,0
DA:465,0
DA:467,0
DA:468,0
DA:469,0
DA:470,0
DA:471,0
DA:472,0
DA:473,0
DA:474,0
DA:475,0
DA:477,0
DA:478,0
DA:479,0
DA:484,0
DA:485,0
DA:487,0
DA:488,0
DA:489,0
DA:490,0
DA:491,0
DA:492,0
DA:493,0
DA:494,0
DA:495,0
DA:498,0
DA:500,0
DA:501,0
DA:502,0
DA:503,0
DA:506,0
DA:508,0
DA:509,0
DA:510,0
DA:511,0
DA:514,0
DA:515,0
DA:516,0
DA:518,0
DA:519,0
DA:521,0
DA:522,0
DA:523,0
DA:524,0
DA:525,0
DA:526,0
DA:527,0
DA:528,0
DA:529,0
DA:532,0
DA:533,0
DA:535,0
DA:536,0
DA:539,0
DA:543,0
DA:544,0
BRF:0
BRH:0
LF:362
LH:0
end_of_record
SF:/home/ametel/source/fossil-headers-db/src/commands/tests.rs
FN:71,_RNCNvNtNtNtNtCs5Xp1JEPGtUd_17fossil_headers_db8commands5tests10unit_tests20business_logic_testss_23test_duration_constants0Bb_
FN:58,_RNCNvNtNtNtNtCs5Xp1JEPGtUd_17fossil_headers_db8commands5tests10unit_tests20business_logic_testss_27test_atomic_bool_operations0Bb_
FN:49,_RNCNvNtNtNtNtCs5Xp1JEPGtUd_17fossil_headers_db8commands5tests10unit_tests20business_logic_testss_28test_block_number_validation0Bb_
FN:71,_RNvNtNtNtNtCs5Xp1JEPGtUd_17fossil_headers_db8commands5tests10unit_tests20business_logic_testss_23test_duration_constants
FN:58,_RNvNtNtNtNtCs5Xp1JEPGtUd_17fossil_headers_db8commands5tests10unit_tests20business_logic_testss_27test_atomic_bool_operations
FN:49,_RNvNtNtNtNtCs5Xp1JEPGtUd_17fossil_headers_db8commands5tests10unit_tests20business_logic_testss_28test_block_number_validation
FN:96,_RNvNtNtNtNtCs5Xp1JEPGtUd_17fossil_headers_db8commands5tests10unit_tests17termination_testss_26test_immediate_termination
FN:86,_RNvNtNtNtNtCs5Xp1JEPGtUd_17fossil_headers_db8commands5tests10unit_tests17termination_testss_32test_termination_signal_creation
FN:39,_RNvNtNtNtNtCs5Xp1JEPGtUd_17fossil_headers_db8commands5tests10unit_tests15constants_testss_19test_retry_constant
FN:28,_RNvNtNtNtNtCs5Xp1JEPGtUd_17fossil_headers_db8commands5tests10unit_tests15constants_testss_22test_timeout_constants
FN:21,_RNvNtNtNtNtCs5Xp1JEPGtUd_17fossil_headers_db8commands5tests10unit_tests15constants_testss_34test_max_concurrent_tasks_constant
FNDA:1,_RNCNvNtNtNtNtCs5Xp1JEPGtUd_17fossil_headers_db8commands5tests10unit_tests20business_logic_testss_23test_duration_constants0Bb_
FNDA:1,_RNCNvNtNtNtNtCs5Xp1JEPGtUd_17fossil_headers_db8commands5tests10unit_tests20business_logic_testss_27test_atomic_bool_operations0Bb_
FNDA:1,_RNCNvNtNtNtNtCs5Xp1JEPGtUd_17fossil_headers_db8commands5tests10unit_tests20business_logic_testss_28test_block_number_validation0Bb_
FNDA:1,_RNvNtNtNtNtCs5Xp1JEPGtUd_17fossil_headers_db8commands5tests10unit_tests20business_logic_testss_23test_duration_constants
FNDA:1,_RNvNtNtNtNtCs5Xp1JEPGtUd_17fossil_headers_db8commands5tests10unit_tests20business_logic_testss_27test_atomic_bool_operations
FNDA:1,_RNvNtNtNtNtCs5Xp1JEPGtUd_17fossil_headers_db8commands5tests10unit_tests20business_logic_testss_28test_block_number_validation
FNDA:1,_RNvNtNtNtNtCs5Xp1JEPGtUd_17fossil_headers_db8commands5tests10unit_tests17termination_testss_26test_immediate_termination
FNDA:1,_RNvNtNtNtNtCs5Xp1JEPGtUd_17fossil_headers_db8commands5tests10unit_tests17termination_testss_32test_termination_signal_creation
FNDA:1,_RNvNtNtNtNtCs5Xp1JEPGtUd_17fossil_headers_db8commands5tests10unit_tests15constants_testss_19test_retry_constant
FNDA:1,_RNvNtNtNtNtCs5Xp1JEPGtUd_17fossil_headers_db8commands5tests10unit_tests15constants_testss_22test_timeout_constants
FNDA:1,_RNvNtNtNtNtCs5Xp1JEPGtUd_17fossil_headers_db8commands5tests10unit_tests15constants_testss_34test_max_concurrent_tasks_constant
FNF:11
FNH:11
DA:21,1
DA:22,1
DA:23,1
DA:24,1
DA:28,1
DA:29,1
DA:30,1
DA:31,1
DA:33,1
DA:34,1
DA:35,1
DA:39,1
DA:40,1
DA:41,1
DA:42,1
DA:49,1
DA:50,1
DA:51,1
DA:53,1
DA:54,1
DA:55,1
DA:58,1
DA:59,1
DA:61,1
DA:63,1
DA:64,1
DA:66,1
DA:67,1
DA:68,1
DA:71,1
DA:72,1
DA:73,1
DA:74,1
DA:76,1
DA:77,1
DA:78,1
DA:79,1
DA:86,1
DA:87,1
DA:88,1
DA:90,1
DA:91,1
DA:92,1
DA:93,1
DA:96,1
DA:97,1
DA:98,1
DA:99,1
BRF:0
BRH:0
LF:54
LH:54
end_of_record
SF:/home/ametel/source/fossil-headers-db/src/db/mod.rs
FN:529,_RINvNtCscwo6F0TH2eV_17fossil_headers_db2db11retry_asyncNCNCNvB2_27get_last_stored_blocknumber00NtNtB4_5types11BlockNumberECsaImZPb8KXhW_17fossil_headers_db
FN:532,_RNCINvNtCscwo6F0TH2eV_17fossil_headers_db2db11retry_asyncNCNCNvB4_27get_last_stored_blocknumber00NtNtB6_5types11BlockNumberE0CsaImZPb8KXhW_17fossil_headers_db
FN:249,_RNCNCNCNCNvNtCscwo6F0TH2eV_17fossil_headers_db2db27get_last_stored_blocknumber0000CsaImZPb8KXhW_17fossil_headers_db
FN:462,_RNCNCNCNvNtCscwo6F0TH2eV_17fossil_headers_db2db19insert_transactions000CsaImZPb8KXhW_17fossil_headers_db
FN:464,_RNCNCNCNvNtCscwo6F0TH2eV_17fossil_headers_db2db19insert_transactions00s_0CsaImZPb8KXhW_17fossil_headers_db
FN:243,_RNCNCNCNvNtCscwo6F0TH2eV_17fossil_headers_db2db27get_last_stored_blocknumber000CsaImZPb8KXhW_17fossil_headers_db
FN:323,_RNCNCNvNtCscwo6F0TH2eV_17fossil_headers_db2db14find_first_gap00CsaImZPb8KXhW_17fossil_headers_db
FN:325,_RNCNCNvNtCscwo6F0TH2eV_17fossil_headers_db2db14find_first_gap0s_0CsaImZPb8KXhW_17fossil_headers_db
FN:359,_RNCNCNvNtCscwo6F0TH2eV_17fossil_headers_db2db14find_null_data00CsaImZPb8KXhW_17fossil_headers_db
FN:363,_RNCNCNvNtCscwo6F0TH2eV_17fossil_headers_db2db14find_null_data0s_0CsaImZPb8KXhW_17fossil_headers_db
FN:523,_RNCNCNvNtCscwo6F0TH2eV_17fossil_headers_db2db17write_blockheader00CsaImZPb8KXhW_17fossil_headers_db
FN:430,_RNCNCNvNtCscwo6F0TH2eV_17fossil_headers_db2db19insert_block_header00CsaImZPb8KXhW_17fossil_headers_db
FN:460,_RNCNCNvNtCscwo6F0TH2eV_17fossil_headers_db2db19insert_transactions00CsaImZPb8KXhW_17fossil_headers_db
FN:500,_RNCNCNvNtCscwo6F0TH2eV_17fossil_headers_db2db19insert_transactions0s0_0CsaImZPb8KXhW_17fossil_headers_db
FN:482,_RNCNCNvNtCscwo6F0TH2eV_17fossil_headers_db2db19insert_transactions0s_0CsaImZPb8KXhW_17fossil_headers_db
FN:242,_RNCNCNvNtCscwo6F0TH2eV_17fossil_headers_db2db27get_last_stored_blocknumber00CsaImZPb8KXhW_17fossil_headers_db
FN:305,_RNCNvNtCscwo6F0TH2eV_17fossil_headers_db2db14find_first_gap0CsaImZPb8KXhW_17fossil_headers_db
FN:332,_RNCNvNtCscwo6F0TH2eV_17fossil_headers_db2db14find_null_data0CsaImZPb8KXhW_17fossil_headers_db
FN:512,_RNCNvNtCscwo6F0TH2eV_17fossil_headers_db2db17write_blockheader0CsaImZPb8KXhW_17fossil_headers_db
FN:370,_RNCNvNtCscwo6F0TH2eV_17fossil_headers_db2db19insert_block_header0CsaImZPb8KXhW_17fossil_headers_db
FN:452,_RNCNvNtCscwo6F0TH2eV_17fossil_headers_db2db19insert_transactions0CsaImZPb8KXhW_17fossil_headers_db
FN:238,_RNCNvNtCscwo6F0TH2eV_17fossil_headers_db2db27get_last_stored_blocknumber0CsaImZPb8KXhW_17fossil_headers_db
FN:572,_RNvMNtCscwo6F0TH2eV_17fossil_headers_db2dbNtB2_12DbConnection3new
FN:118,_RNvNtCscwo6F0TH2eV_17fossil_headers_db2db11get_db_pool
FN:305,_RNvNtCscwo6F0TH2eV_17fossil_headers_db2db14find_first_gap
FN:332,_RNvNtCscwo6F0TH2eV_17fossil_headers_db2db14find_null_data
FN:512,_RNvNtCscwo6F0TH2eV_17fossil_headers_db2db17write_blockheader
FN:554,_RNvNtCscwo6F0TH2eV_17fossil_headers_db2db18is_transient_error
FN:193,_RNvNtCscwo6F0TH2eV_17fossil_headers_db2db19check_db_connection
FN:367,_RNvNtCscwo6F0TH2eV_17fossil_headers_db2db19insert_block_header
FN:449,_RNvNtCscwo6F0TH2eV_17fossil_headers_db2db19insert_transactions
FN:238,_RNvNtCscwo6F0TH2eV_17fossil_headers_db2db27get_last_stored_blocknumber
FN:123,_RNCNCNvNtCscwo6F0TH2eV_17fossil_headers_db2db11get_db_pool00B7_
FN:143,_RNCNCNvNtCscwo6F0TH2eV_17fossil_headers_db2db11get_db_pool0s0_0B7_
FN:153,_RNCNCNvNtCscwo6F0TH2eV_17fossil_headers_db2db11get_db_pool0s1_0B7_
FN:130,_RNCNCNvNtCscwo6F0TH2eV_17fossil_headers_db2db11get_db_pool0s_0B7_
FN:194,_RNCNCNvNtCscwo6F0TH2eV_17fossil_headers_db2db19check_db_connection00B7_
FN:200,_RNCNCNvNtCscwo6F0TH2eV_17fossil_headers_db2db19check_db_connection0s_0B7_
FN:118,_RNCNvNtCscwo6F0TH2eV_17fossil_headers_db2db11get_db_pool0B5_
FN:193,_RNCNvNtCscwo6F0TH2eV_17fossil_headers_db2db19check_db_connection0B5_
FN:529,_RINvNtCscwo6F0TH2eV_17fossil_headers_db2db11retry_asyncppEB4_
FN:532,_RNCINvNtCscwo6F0TH2eV_17fossil_headers_db2db11retry_asyncppE0B6_
FN:249,_RNCNCNCNCNvNtCscwo6F0TH2eV_17fossil_headers_db2db27get_last_stored_blocknumber0000Bb_
FN:462,_RNCNCNCNvNtCscwo6F0TH2eV_17fossil_headers_db2db19insert_transactions000B9_
FN:464,_RNCNCNCNvNtCscwo6F0TH2eV_17fossil_headers_db2db19insert_transactions00s_0B9_
FN:243,_RNCNCNCNvNtCscwo6F0TH2eV_17fossil_headers_db2db27get_last_stored_blocknumber000B9_
FN:323,_RNCNCNvNtCscwo6F0TH2eV_17fossil_headers_db2db14find_first_gap00B7_
FN:325,_RNCNCNvNtCscwo6F0TH2eV_17fossil_headers_db2db14find_first_gap0s_0B7_
FN:359,_RNCNCNvNtCscwo6F0TH2eV_17fossil_headers_db2db14find_null_data00B7_
FN:363,_RNCNCNvNtCscwo6F0TH2eV_17fossil_headers_db2db14find_null_data0s_0B7_
FN:523,_RNCNCNvNtCscwo6F0TH2eV_17fossil_headers_db2db17write_blockheader00B7_
FN:430,_RNCNCNvNtCscwo6F0TH2eV_17fossil_headers_db2db19insert_block_header00B7_
FN:460,_RNCNCNvNtCscwo6F0TH2eV_17fossil_headers_db2db19insert_transactions00B7_
FN:500,_RNCNCNvNtCscwo6F0TH2eV_17fossil_headers_db2db19insert_transactions0s0_0B7_
FN:482,_RNCNCNvNtCscwo6F0TH2eV_17fossil_headers_db2db19insert_transactions0s_0B7_
FN:242,_RNCNCNvNtCscwo6F0TH2eV_17fossil_headers_db2db27get_last_stored_blocknumber00B7_
FN:572,_RNCNvMNtCscwo6F0TH2eV_17fossil_headers_db2dbNtB4_12DbConnection3new0B6_
FN:305,_RNCNvNtCscwo6F0TH2eV_17fossil_headers_db2db14find_first_gap0B5_
FN:332,_RNCNvNtCscwo6F0TH2eV_17fossil_headers_db2db14find_null_data0B5_
FN:512,_RNCNvNtCscwo6F0TH2eV_17fossil_headers_db2db17write_blockheader0B5_
FN:370,_RNCNvNtCscwo6F0TH2eV_17fossil_headers_db2db19insert_block_header0B5_
FN:452,_RNCNvNtCscwo6F0TH2eV_17fossil_headers_db2db19insert_transactions0B5_
FN:238,_RNCNvNtCscwo6F0TH2eV_17fossil_headers_db2db27get_last_stored_blocknumber0B5_
FN:529,_RINvNtCs5Xp1JEPGtUd_17fossil_headers_db2db11retry_asyncppEB4_
FN:532,_RNCINvNtCs5Xp1JEPGtUd_17fossil_headers_db2db11retry_asyncppE0B6_
FN:249,_RNCNCNCNCNvNtCs5Xp1JEPGtUd_17fossil_headers_db2db27get_last_stored_blocknumber0000Bb_
FN:462,_RNCNCNCNvNtCs5Xp1JEPGtUd_17fossil_headers_db2db19insert_transactions000B9_
FN:464,_RNCNCNCNvNtCs5Xp1JEPGtUd_17fossil_headers_db2db19insert_transactions00s_0B9_
FN:243,_RNCNCNCNvNtCs5Xp1JEPGtUd_17fossil_headers_db2db27get_last_stored_blocknumber000B9_
FN:123,_RNCNCNvNtCs5Xp1JEPGtUd_17fossil_headers_db2db11get_db_pool00B7_
FN:143,_RNCNCNvNtCs5Xp1JEPGtUd_17fossil_headers_db2db11get_db_pool0s0_0B7_
FN:153,_RNCNCNvNtCs5Xp1JEPGtUd_17fossil_headers_db2db11get_db_pool0s1_0B7_
FN:130,_RNCNCNvNtCs5Xp1JEPGtUd_17fossil_headers_db2db11get_db_pool0s_0B7_
FN:323,_RNCNCNvNtCs5Xp1JEPGtUd_17fossil_headers_db2db14find_first_gap00B7_
FN:325,_RNCNCNvNtCs5Xp1JEPGtUd_17fossil_headers_db2db14find_first_gap0s_0B7_
FN:359,_RNCNCNvNtCs5Xp1JEPGtUd_17fossil_headers_db2db14find_null_data00B7_
FN:363,_RNCNCNvNtCs5Xp1JEPGtUd_17fossil_headers_db2db14find_null_data0s_0B7_
FN:523,_RNCNCNvNtCs5Xp1JEPGtUd_17fossil_headers_db2db17write_blockheader00B7_
FN:194,_RNCNCNvNtCs5Xp1JEPGtUd_17fossil_headers_db2db19check_db_connection00B7_
FN:200,_RNCNCNvNtCs5Xp1JEPGtUd_17fossil_headers_db2db19check_db_connection0s_0B7_
FN:430,_RNCNCNvNtCs5Xp1JEPGtUd_17fossil_headers_db2db19insert_block_header00B7_
FN:460,_RNCNCNvNtCs5Xp1JEPGtUd_17fossil_headers_db2db19insert_transactions00B7_
FN:500,_RNCNCNvNtCs5Xp1JEPGtUd_17fossil_headers_db2db19insert_transactions0s0_0B7_
FN:482,_RNCNCNvNtCs5Xp1JEPGtUd_17fossil_headers_db2db19insert_transactions0s_0B7_
FN:242,_RNCNCNvNtCs5Xp1JEPGtUd_17fossil_headers_db2db27get_last_stored_blocknumber00B7_
FN:118,_RNCNvNtCs5Xp1JEPGtUd_17fossil_headers_db2db11get_db_pool0B5_
FN:305,_RNCNvNtCs5Xp1JEPGtUd_17fossil_headers_db2db14find_first_gap0B5_
FN:332,_RNCNvNtCs5Xp1JEPGtUd_17fossil_headers_db2db14find_null_data0B5_
FN:512,_RNCNvNtCs5Xp1JEPGtUd_17fossil_headers_db2db17write_blockheader0B5_
FN:193,_RNCNvNtCs5Xp1JEPGtUd_17fossil_headers_db2db19check_db_connection0B5_
FN:370,_RNCNvNtCs5Xp1JEPGtUd_17fossil_headers_db2db19insert_block_header0B5_
FN:452,_RNCNvNtCs5Xp1JEPGtUd_17fossil_headers_db2db19insert_transactions0B5_
FN:238,_RNCNvNtCs5Xp1JEPGtUd_17fossil_headers_db2db27get_last_stored_blocknumber0B5_
FN:118,_RNvNtCs5Xp1JEPGtUd_17fossil_headers_db2db11get_db_pool
FN:305,_RNvNtCs5Xp1JEPGtUd_17fossil_headers_db2db14find_first_gap
FN:332,_RNvNtCs5Xp1JEPGtUd_17fossil_headers_db2db14find_null_data
FN:512,_RNvNtCs5Xp1JEPGtUd_17fossil_headers_db2db17write_blockheader
FN:554,_RNvNtCs5Xp1JEPGtUd_17fossil_headers_db2db18is_transient_error
FN:193,_RNvNtCs5Xp1JEPGtUd_17fossil_headers_db2db19check_db_connection
FN:367,_RNvNtCs5Xp1JEPGtUd_17fossil_headers_db2db19insert_block_header
FN:449,_RNvNtCs5Xp1JEPGtUd_17fossil_headers_db2db19insert_transactions
FN:238,_RNvNtCs5Xp1JEPGtUd_17fossil_headers_db2db27get_last_stored_blocknumber
FN:596,_RNvNtNtCs5Xp1JEPGtUd_17fossil_headers_db2db17integration_tests22get_test_db_connection
FN:603,_RNvNtNtCs5Xp1JEPGtUd_17fossil_headers_db2db17integration_testss_38test_should_successfully_initialize_db
FN:611,_RNvNtNtCs5Xp1JEPGtUd_17fossil_headers_db2db17integration_testss_45test_should_fail_if_incorrect_db_url_provided
FN:572,_RNCNvMNtCs5Xp1JEPGtUd_17fossil_headers_db2dbNtB4_12DbConnection3new0B6_
FN:597,_RNCNvNtNtCs5Xp1JEPGtUd_17fossil_headers_db2db17integration_tests22get_test_db_connection0B7_
FN:603,_RNCNvNtNtCs5Xp1JEPGtUd_17fossil_headers_db2db17integration_testss_38test_should_successfully_initialize_db0B7_
FN:611,_RNCNvNtNtCs5Xp1JEPGtUd_17fossil_headers_db2db17integration_testss_45test_should_fail_if_incorrect_db_url_provided0B7_
FN:572,_RNvMNtCs5Xp1JEPGtUd_17fossil_headers_db2dbNtB2_12DbConnection3new
FN:323,_RNCNCNvNtCscwo6F0TH2eV_17fossil_headers_db2db14find_first_gap00Csh9rWqc8ZKZD_14fossil_indexer
FN:325,_RNCNCNvNtCscwo6F0TH2eV_17fossil_headers_db2db14find_first_gap0s_0Csh9rWqc8ZKZD_14fossil_indexer
FN:572,_RNCNvMNtCscwo6F0TH2eV_17fossil_headers_db2dbNtB4_12DbConnection3new0Csh9rWqc8ZKZD_14fossil_indexer
FN:305,_RNCNvNtCscwo6F0TH2eV_17fossil_headers_db2db14find_first_gap0Csh9rWqc8ZKZD_14fossil_indexer
FN:323,_RNCNCNvNtCscwo6F0TH2eV_17fossil_headers_db2db14find_first_gap00CskmtwmJfGVHK_12test_indexer
FN:325,_RNCNCNvNtCscwo6F0TH2eV_17fossil_headers_db2db14find_first_gap0s_0CskmtwmJfGVHK_12test_indexer
FN:572,_RNCNvMNtCscwo6F0TH2eV_17fossil_headers_db2dbNtB4_12DbConnection3new0CskmtwmJfGVHK_12test_indexer
FN:305,_RNCNvNtCscwo6F0TH2eV_17fossil_headers_db2db14find_first_gap0CskmtwmJfGVHK_12test_indexer
FNDA:0,_RINvNtCscwo6F0TH2eV_17fossil_headers_db2db11retry_asyncNCNCNvB2_27get_last_stored_blocknumber00NtNtB4_5types11BlockNumberECsaImZPb8KXhW_17fossil_headers_db
FNDA:0,_RNCINvNtCscwo6F0TH2eV_17fossil_headers_db2db11retry_asyncNCNCNvB4_27get_last_stored_blocknumber00NtNtB6_5types11BlockNumberE0CsaImZPb8KXhW_17fossil_headers_db
FNDA:0,_RNCNCNCNCNvNtCscwo6F0TH2eV_17fossil_headers_db2db27get_last_stored_blocknumber0000CsaImZPb8KXhW_17fossil_headers_db
FNDA:0,_RNCNCNCNvNtCscwo6F0TH2eV_17fossil_headers_db2db19insert_transactions000CsaImZPb8KXhW_17fossil_headers_db
FNDA:0,_RNCNCNCNvNtCscwo6F0TH2eV_17fossil_headers_db2db19insert_transactions00s_0CsaImZPb8KXhW_17fossil_headers_db
FNDA:0,_RNCNCNCNvNtCscwo6F0TH2eV_17fossil_headers_db2db27get_last_stored_blocknumber000CsaImZPb8KXhW_17fossil_headers_db
FNDA:0,_RNCNCNvNtCscwo6F0TH2eV_17fossil_headers_db2db14find_first_gap00CsaImZPb8KXhW_17fossil_headers_db
FNDA:0,_RNCNCNvNtCscwo6F0TH2eV_17fossil_headers_db2db14find_first_gap0s_0CsaImZPb8KXhW_17fossil_headers_db
FNDA:0,_RNCNCNvNtCscwo6F0TH2eV_17fossil_headers_db2db14find_null_data00CsaImZPb8KXhW_17fossil_headers_db
FNDA:0,_RNCNCNvNtCscwo6F0TH2eV_17fossil_headers_db2db14find_null_data0s_0CsaImZPb8KXhW_17fossil_headers_db
FNDA:0,_RNCNCNvNtCscwo6F0TH2eV_17fossil_headers_db2db17write_blockheader00CsaImZPb8KXhW_17fossil_headers_db
FNDA:0,_RNCNCNvNtCscwo6F0TH2eV_17fossil_headers_db2db19insert_block_header00CsaImZPb8KXhW_17fossil_headers_db
FNDA:0,_RNCNCNvNtCscwo6F0TH2eV_17fossil_headers_db2db19insert_transactions00CsaImZPb8KXhW_17fossil_headers_db
FNDA:0,_RNCNCNvNtCscwo6F0TH2eV_17fossil_headers_db2db19insert_transactions0s0_0CsaImZPb8KXhW_17fossil_headers_db
FNDA:0,_RNCNCNvNtCscwo6F0TH2eV_17fossil_headers_db2db19insert_transactions0s_0CsaImZPb8KXhW_17fossil_headers_db
FNDA:0,_RNCNCNvNtCscwo6F0TH2eV_17fossil_headers_db2db27get_last_stored_blocknumber00CsaImZPb8KXhW_17fossil_headers_db
FNDA:0,_RNCNvNtCscwo6F0TH2eV_17fossil_headers_db2db14find_first_gap0CsaImZPb8KXhW_17fossil_headers_db
FNDA:0,_RNCNvNtCscwo6F0TH2eV_17fossil_headers_db2db14find_null_data0CsaImZPb8KXhW_17fossil_headers_db
FNDA:0,_RNCNvNtCscwo6F0TH2eV_17fossil_headers_db2db17write_blockheader0CsaImZPb8KXhW_17fossil_headers_db
FNDA:0,_RNCNvNtCscwo6F0TH2eV_17fossil_headers_db2db19insert_block_header0CsaImZPb8KXhW_17fossil_headers_db
FNDA:0,_RNCNvNtCscwo6F0TH2eV_17fossil_headers_db2db19insert_transactions0CsaImZPb8KXhW_17fossil_headers_db
FNDA:0,_RNCNvNtCscwo6F0TH2eV_17fossil_headers_db2db27get_last_stored_blocknumber0CsaImZPb8KXhW_17fossil_headers_db
FNDA:7,_RNvMNtCscwo6F0TH2eV_17fossil_headers_db2dbNtB2_12DbConnection3new
FNDA:0,_RNvNtCscwo6F0TH2eV_17fossil_headers_db2db11get_db_pool
FNDA:0,_RNvNtCscwo6F0TH2eV_17fossil_headers_db2db14find_first_gap
FNDA:0,_RNvNtCscwo6F0TH2eV_17fossil_headers_db2db14find_null_data
FNDA:0,_RNvNtCscwo6F0TH2eV_17fossil_headers_db2db17write_blockheader
FNDA:0,_RNvNtCscwo6F0TH2eV_17fossil_headers_db2db18is_transient_error
FNDA:0,_RNvNtCscwo6F0TH2eV_17fossil_headers_db2db19check_db_connection
FNDA:0,_RNvNtCscwo6F0TH2eV_17fossil_headers_db2db19insert_block_header
FNDA:0,_RNvNtCscwo6F0TH2eV_17fossil_headers_db2db19insert_transactions
FNDA:0,_RNvNtCscwo6F0TH2eV_17fossil_headers_db2db27get_last_stored_blocknumber
FNDA:0,_RNCNCNvNtCscwo6F0TH2eV_17fossil_headers_db2db11get_db_pool00B7_
FNDA:0,_RNCNCNvNtCscwo6F0TH2eV_17fossil_headers_db2db11get_db_pool0s0_0B7_
FNDA:0,_RNCNCNvNtCscwo6F0TH2eV_17fossil_headers_db2db11get_db_pool0s1_0B7_
FNDA:0,_RNCNCNvNtCscwo6F0TH2eV_17fossil_headers_db2db11get_db_pool0s_0B7_
FNDA:0,_RNCNCNvNtCscwo6F0TH2eV_17fossil_headers_db2db19check_db_connection00B7_
FNDA:0,_RNCNCNvNtCscwo6F0TH2eV_17fossil_headers_db2db19check_db_connection0s_0B7_
FNDA:0,_RNCNvNtCscwo6F0TH2eV_17fossil_headers_db2db11get_db_pool0B5_
FNDA:0,_RNCNvNtCscwo6F0TH2eV_17fossil_headers_db2db19check_db_connection0B5_
FNDA:0,_RINvNtCscwo6F0TH2eV_17fossil_headers_db2db11retry_asyncppEB4_
FNDA:0,_RNCINvNtCscwo6F0TH2eV_17fossil_headers_db2db11retry_asyncppE0B6_
FNDA:0,_RNCNCNCNCNvNtCscwo6F0TH2eV_17fossil_headers_db2db27get_last_stored_blocknumber0000Bb_
FNDA:0,_RNCNCNCNvNtCscwo6F0TH2eV_17fossil_headers_db2db19insert_transactions000B9_
FNDA:0,_RNCNCNCNvNtCscwo6F0TH2eV_17fossil_headers_db2db19insert_transactions00s_0B9_
FNDA:0,_RNCNCNCNvNtCscwo6F0TH2eV_17fossil_headers_db2db27get_last_stored_blocknumber000B9_
FNDA:0,_RNCNCNvNtCscwo6F0TH2eV_17fossil_headers_db2db14find_first_gap00B7_
FNDA:0,_RNCNCNvNtCscwo6F0TH2eV_17fossil_headers_db2db14find_first_gap0s_0B7_
FNDA:0,_RNCNCNvNtCscwo6F0TH2eV_17fossil_headers_db2db14find_null_data00B7_
FNDA:0,_RNCNCNvNtCscwo6F0TH2eV_17fossil_headers_db2db14find_null_data0s_0B7_
FNDA:0,_RNCNCNvNtCscwo6F0TH2eV_17fossil_headers_db2db17write_blockheader00B7_
FNDA:0,_RNCNCNvNtCscwo6F0TH2eV_17fossil_headers_db2db19insert_block_header00B7_
FNDA:0,_RNCNCNvNtCscwo6F0TH2eV_17fossil_headers_db2db19insert_transactions00B7_
FNDA:0,_RNCNCNvNtCscwo6F0TH2eV_17fossil_headers_db2db19insert_transactions0s0_0B7_
FNDA:0,_RNCNCNvNtCscwo6F0TH2eV_17fossil_headers_db2db19insert_transactions0s_0B7_
FNDA:0,_RNCNCNvNtCscwo6F0TH2eV_17fossil_headers_db2db27get_last_stored_blocknumber00B7_
FNDA:0,_RNCNvMNtCscwo6F0TH2eV_17fossil_headers_db2dbNtB4_12DbConnection3new0B6_
FNDA:0,_RNCNvNtCscwo6F0TH2eV_17fossil_headers_db2db14find_first_gap0B5_
FNDA:0,_RNCNvNtCscwo6F0TH2eV_17fossil_headers_db2db14find_null_data0B5_
FNDA:0,_RNCNvNtCscwo6F0TH2eV_17fossil_headers_db2db17write_blockheader0B5_
FNDA:0,_RNCNvNtCscwo6F0TH2eV_17fossil_headers_db2db19insert_block_header0B5_
FNDA:0,_RNCNvNtCscwo6F0TH2eV_17fossil_headers_db2db19insert_transactions0B5_
FNDA:0,_RNCNvNtCscwo6F0TH2eV_17fossil_headers_db2db27get_last_stored_blocknumber0B5_
FNDA:0,_RINvNtCs5Xp1JEPGtUd_17fossil_headers_db2db11retry_asyncppEB4_
FNDA:0,_RNCINvNtCs5Xp1JEPGtUd_17fossil_headers_db2db11retry_asyncppE0B6_
FNDA:0,_RNCNCNCNCNvNtCs5Xp1JEPGtUd_17fossil_headers_db2db27get_last_stored_blocknumber0000Bb_
FNDA:0,_RNCNCNCNvNtCs5Xp1JEPGtUd_17fossil_headers_db2db19insert_transactions000B9_
FNDA:0,_RNCNCNCNvNtCs5Xp1JEPGtUd_17fossil_headers_db2db19insert_transactions00s_0B9_
FNDA:0,_RNCNCNCNvNtCs5Xp1JEPGtUd_17fossil_headers_db2db27get_last_stored_blocknumber000B9_
FNDA:0,_RNCNCNvNtCs5Xp1JEPGtUd_17fossil_headers_db2db11get_db_pool00B7_
FNDA:0,_RNCNCNvNtCs5Xp1JEPGtUd_17fossil_headers_db2db11get_db_pool0s0_0B7_
FNDA:0,_RNCNCNvNtCs5Xp1JEPGtUd_17fossil_headers_db2db11get_db_pool0s1_0B7_
FNDA:0,_RNCNCNvNtCs5Xp1JEPGtUd_17fossil_headers_db2db11get_db_pool0s_0B7_
FNDA:0,_RNCNCNvNtCs5Xp1JEPGtUd_17fossil_headers_db2db14find_first_gap00B7_
FNDA:0,_RNCNCNvNtCs5Xp1JEPGtUd_17fossil_headers_db2db14find_first_gap0s_0B7_
FNDA:0,_RNCNCNvNtCs5Xp1JEPGtUd_17fossil_headers_db2db14find_null_data00B7_
FNDA:0,_RNCNCNvNtCs5Xp1JEPGtUd_17fossil_headers_db2db14find_null_data0s_0B7_
FNDA:0,_RNCNCNvNtCs5Xp1JEPGtUd_17fossil_headers_db2db17write_blockheader00B7_
FNDA:0,_RNCNCNvNtCs5Xp1JEPGtUd_17fossil_headers_db2db19check_db_connection00B7_
FNDA:0,_RNCNCNvNtCs5Xp1JEPGtUd_17fossil_headers_db2db19check_db_connection0s_0B7_
FNDA:0,_RNCNCNvNtCs5Xp1JEPGtUd_17fossil_headers_db2db19insert_block_header00B7_
FNDA:0,_RNCNCNvNtCs5Xp1JEPGtUd_17fossil_headers_db2db19insert_transactions00B7_
FNDA:0,_RNCNCNvNtCs5Xp1JEPGtUd_17fossil_headers_db2db19insert_transactions0s0_0B7_
FNDA:0,_RNCNCNvNtCs5Xp1JEPGtUd_17fossil_headers_db2db19insert_transactions0s_0B7_
FNDA:0,_RNCNCNvNtCs5Xp1JEPGtUd_17fossil_headers_db2db27get_last_stored_blocknumber00B7_
FNDA:0,_RNCNvNtCs5Xp1JEPGtUd_17fossil_headers_db2db11get_db_pool0B5_
FNDA:0,_RNCNvNtCs5Xp1JEPGtUd_17fossil_headers_db2db14find_first_gap0B5_
FNDA:0,_RNCNvNtCs5Xp1JEPGtUd_17fossil_headers_db2db14find_null_data0B5_
FNDA:0,_RNCNvNtCs5Xp1JEPGtUd_17fossil_headers_db2db17write_blockheader0B5_
FNDA:0,_RNCNvNtCs5Xp1JEPGtUd_17fossil_headers_db2db19check_db_connection0B5_
FNDA:0,_RNCNvNtCs5Xp1JEPGtUd_17fossil_headers_db2db19insert_block_header0B5_
FNDA:0,_RNCNvNtCs5Xp1JEPGtUd_17fossil_headers_db2db19insert_transactions0B5_
FNDA:0,_RNCNvNtCs5Xp1JEPGtUd_17fossil_headers_db2db27get_last_stored_blocknumber0B5_
FNDA:0,_RNvNtCs5Xp1JEPGtUd_17fossil_headers_db2db11get_db_pool
FNDA:0,_RNvNtCs5Xp1JEPGtUd_17fossil_headers_db2db14find_first_gap
FNDA:0,_RNvNtCs5Xp1JEPGtUd_17fossil_headers_db2db14find_null_data
FNDA:0,_RNvNtCs5Xp1JEPGtUd_17fossil_headers_db2db17write_blockheader
FNDA:0,_RNvNtCs5Xp1JEPGtUd_17fossil_headers_db2db18is_transient_error
FNDA:0,_RNvNtCs5Xp1JEPGtUd_17fossil_headers_db2db19check_db_connection
FNDA:0,_RNvNtCs5Xp1JEPGtUd_17fossil_headers_db2db19insert_block_header
FNDA:0,_RNvNtCs5Xp1JEPGtUd_17fossil_headers_db2db19insert_transactions
FNDA:0,_RNvNtCs5Xp1JEPGtUd_17fossil_headers_db2db27get_last_stored_blocknumber
FNDA:1,_RNvNtNtCs5Xp1JEPGtUd_17fossil_headers_db2db17integration_tests22get_test_db_connection
FNDA:1,_RNvNtNtCs5Xp1JEPGtUd_17fossil_headers_db2db17integration_testss_38test_should_successfully_initialize_db
FNDA:1,_RNvNtNtCs5Xp1JEPGtUd_17fossil_headers_db2db17integration_testss_45test_should_fail_if_incorrect_db_url_provided
FNDA:30,_RNCNvMNtCs5Xp1JEPGtUd_17fossil_headers_db2dbNtB4_12DbConnection3new0B6_
FNDA:0,_RNCNvNtNtCs5Xp1JEPGtUd_17fossil_headers_db2db17integration_tests22get_test_db_connection0B7_
FNDA:1,_RNCNvNtNtCs5Xp1JEPGtUd_17fossil_headers_db2db17integration_testss_38test_should_successfully_initialize_db0B7_
FNDA:1,_RNCNvNtNtCs5Xp1JEPGtUd_17fossil_headers_db2db17integration_testss_45test_should_fail_if_incorrect_db_url_provided0B7_
FNDA:30,_RNvMNtCs5Xp1JEPGtUd_17fossil_headers_db2dbNtB2_12DbConnection3new
FNDA:0,_RNCNCNvNtCscwo6F0TH2eV_17fossil_headers_db2db14find_first_gap00Csh9rWqc8ZKZD_14fossil_indexer
FNDA:0,_RNCNCNvNtCscwo6F0TH2eV_17fossil_headers_db2db14find_first_gap0s_0Csh9rWqc8ZKZD_14fossil_indexer
FNDA:0,_RNCNvMNtCscwo6F0TH2eV_17fossil_headers_db2dbNtB4_12DbConnection3new0Csh9rWqc8ZKZD_14fossil_indexer
FNDA:0,_RNCNvNtCscwo6F0TH2eV_17fossil_headers_db2db14find_first_gap0Csh9rWqc8ZKZD_14fossil_indexer
FNDA:0,_RNCNCNvNtCscwo6F0TH2eV_17fossil_headers_db2db14find_first_gap00CskmtwmJfGVHK_12test_indexer
FNDA:0,_RNCNCNvNtCscwo6F0TH2eV_17fossil_headers_db2db14find_first_gap0s_0CskmtwmJfGVHK_12test_indexer
FNDA:7,_RNCNvMNtCscwo6F0TH2eV_17fossil_headers_db2dbNtB4_12DbConnection3new0CskmtwmJfGVHK_12test_indexer
FNDA:0,_RNCNvNtCscwo6F0TH2eV_17fossil_headers_db2db14find_first_gap0CskmtwmJfGVHK_12test_indexer
FNF:47
FNH:7
DA:118,0
DA:119,0
DA:120,0
DA:122,0
DA:123,0
DA:124,0
DA:128,0
DA:129,0
DA:130,0
DA:131,0
DA:133,0
DA:135,0
DA:136,0
DA:137,0
DA:139,0
DA:140,0
DA:141,0
DA:142,0
DA:143,0
DA:144,0
DA:145,0
DA:147,0
DA:148,0
DA:149,0
DA:150,0
DA:151,0
DA:152,0
DA:153,0
DA:154,0
DA:157,0
DA:158,0
DA:161,0
DA:193,0
DA:194,0
DA:195,0
DA:196,0
DA:197,0
DA:198,0
DA:199,0
DA:200,0
DA:201,0
DA:202,0
DA:238,0
DA:241,0
DA:242,0
DA:243,0
DA:244,0
DA:245,0
DA:246,0
DA:247,0
DA:248,0
DA:249,0
DA:250,0
DA:251,0
DA:253,0
DA:255,0
DA:256,0
DA:257,0
DA:258,0
DA:261,0
DA:262,0
DA:305,0
DA:306,0
DA:307,0
DA:308,0
DA:309,0
DA:310,0
DA:311,0
DA:312,0
DA:313,0
DA:314,0
DA:315,0
DA:316,0
DA:317,0
DA:318,0
DA:319,0
DA:320,0
DA:321,0
DA:322,0
DA:323,0
DA:325,0
DA:326,0
DA:332,0
DA:333,0
DA:334,0
DA:335,0
DA:336,0
DA:337,0
DA:338,0
DA:339,0
DA:340,0
DA:341,0
DA:342,0
DA:343,0
DA:344,0
DA:345,0
DA:346,0
DA:347,0
DA:348,0
DA:349,0
DA:350,0
DA:351,0
DA:352,0
DA:353,0
DA:354,0
DA:355,0
DA:356,0
DA:357,0
DA:358,0
DA:359,0
DA:361,0
DA:362,0
DA:363,0
DA:364,0
DA:365,0
DA:367,0
DA:368,0
DA:369,0
DA:370,0
DA:371,0
DA:372,0
DA:373,0
DA:374,0
DA:375,0
DA:376,0
DA:377,0
DA:378,0
DA:379,0
DA:380,0
DA:381,0
DA:382,0
DA:383,0
DA:384,0
DA:385,0
DA:386,0
DA:387,0
DA:388,0
DA:389,0
DA:390,0
DA:391,0
DA:392,0
DA:393,0
DA:394,0
DA:395,0
DA:396,0
DA:397,0
DA:398,0
DA:399,0
DA:400,0
DA:401,0
DA:402,0
DA:403,0
DA:404,0
DA:406,0
DA:407,0
DA:408,0
DA:409,0
DA:410,0
DA:411,0
DA:412,0
DA:413,0
DA:414,0
DA:415,0
DA:416,0
DA:417,0
DA:418,0
DA:419,0
DA:420,0
DA:421,0
DA:422,0
DA:423,0
DA:424,0
DA:425,0
DA:426,0
DA:427,0
DA:428,0
DA:429,0
DA:430,0
DA:431,0
DA:432,0
DA:433,0
DA:435,0
DA:436,0
DA:437,0
DA:440,0
DA:441,0
DA:442,0
DA:443,0
DA:446,0
DA:447,0
DA:449,0
DA:450,0
DA:451,0
DA:452,0
DA:453,0
DA:454,0
DA:455,0
DA:457,0
DA:458,0
DA:459,0
DA:460,0
DA:461,0
DA:462,0
DA:463,0
DA:464,0
DA:466,0
DA:467,0
DA:468,0
DA:470,0
DA:472,0
DA:480,0
DA:481,0
DA:482,0
DA:483,0
DA:484,0
DA:485,0
DA:486,0
DA:487,0
DA:488,0
DA:489,0
DA:490,0
DA:491,0
DA:492,0
DA:493,0
DA:494,0
DA:497,0
DA:499,0
DA:500,0
DA:501,0
DA:502,0
DA:504,0
DA:505,0
DA:506,0
DA:509,0
DA:510,0
DA:512,0
DA:513,0
DA:514,0
DA:516,0
DA:517,0
DA:518,0
DA:519,0
DA:521,0
DA:523,0
DA:524,0
DA:525,0
DA:526,0
DA:527,0
DA:529,0
DA:530,0
DA:531,0
DA:532,0
DA:533,0
DA:535,0
DA:536,0
DA:537,0
DA:538,0
DA:539,0
DA:540,0
DA:541,0
DA:542,0
DA:543,0
DA:544,0
DA:547,0
DA:551,0
DA:554,0
DA:556,0
DA:557,0
DA:558,0
DA:559,0
DA:560,0
DA:561,0
DA:563,0
DA:572,37
DA:573,37
DA:575,36
DA:576,36
DA:578,36
DA:579,36
DA:580,36
DA:581,36
DA:583,36
DA:584,37
DA:596,1
DA:597,1
DA:598,0
DA:599,0
DA:600,1
DA:603,1
DA:604,1
DA:605,1
DA:607,1
DA:608,1
DA:611,1
DA:612,1
DA:613,1
BRF:0
BRH:0
LF:335
LH:26
end_of_record
SF:/home/ametel/source/fossil-headers-db/src/db/tests.rs
FN:87,_RNvNtNtNtNtCs5Xp1JEPGtUd_17fossil_headers_db2db5tests10unit_tests24database_constants_testss_28test_db_constants_reasonable
FN:80,_RNvNtNtNtNtCs5Xp1JEPGtUd_17fossil_headers_db2db5tests10unit_tests24database_constants_testss_32test_db_max_connections_constant
FN:31,_RNvNtNtNtNtCs5Xp1JEPGtUd_17fossil_headers_db2db5tests10unit_tests20hex_conversion_testss_35test_convert_hex_string_to_i64_zero
FN:15,_RNvNtNtNtNtCs5Xp1JEPGtUd_17fossil_headers_db2db5tests10unit_tests20hex_conversion_testss_36test_convert_hex_string_to_i64_valid
FN:39,_RNvNtNtNtNtCs5Xp1JEPGtUd_17fossil_headers_db2db5tests10unit_tests20hex_conversion_testss_40test_convert_hex_string_to_i64_max_value
FN:61,_RNvNtNtNtNtCs5Xp1JEPGtUd_17fossil_headers_db2db5tests10unit_tests20hex_conversion_testss_42test_convert_hex_string_to_i64_just_prefix
FN:68,_RNvNtNtNtNtCs5Xp1JEPGtUd_17fossil_headers_db2db5tests10unit_tests20hex_conversion_testss_42test_convert_hex_string_to_i64_large_value
FN:54,_RNvNtNtNtNtCs5Xp1JEPGtUd_17fossil_headers_db2db5tests10unit_tests20hex_conversion_testss_43test_convert_hex_string_to_i64_empty_string
FN:23,_RNvNtNtNtNtCs5Xp1JEPGtUd_17fossil_headers_db2db5tests10unit_tests20hex_conversion_testss_45test_convert_hex_string_to_i64_without_prefix
FN:47,_RNvNtNtNtNtCs5Xp1JEPGtUd_17fossil_headers_db2db5tests10unit_tests20hex_conversion_testss_49test_convert_hex_string_to_i64_invalid_characters
FNDA:1,_RNvNtNtNtNtCs5Xp1JEPGtUd_17fossil_headers_db2db5tests10unit_tests24database_constants_testss_28test_db_constants_reasonable
FNDA:1,_RNvNtNtNtNtCs5Xp1JEPGtUd_17fossil_headers_db2db5tests10unit_tests24database_constants_testss_32test_db_max_connections_constant
FNDA:1,_RNvNtNtNtNtCs5Xp1JEPGtUd_17fossil_headers_db2db5tests10unit_tests20hex_conversion_testss_35test_convert_hex_string_to_i64_zero
FNDA:1,_RNvNtNtNtNtCs5Xp1JEPGtUd_17fossil_headers_db2db5tests10unit_tests20hex_conversion_testss_36test_convert_hex_string_to_i64_valid
FNDA:1,_RNvNtNtNtNtCs5Xp1JEPGtUd_17fossil_headers_db2db5tests10unit_tests20hex_conversion_testss_40test_convert_hex_string_to_i64_max_value
FNDA:1,_RNvNtNtNtNtCs5Xp1JEPGtUd_17fossil_headers_db2db5tests10unit_tests20hex_conversion_testss_42test_convert_hex_string_to_i64_just_prefix
FNDA:1,_RNvNtNtNtNtCs5Xp1JEPGtUd_17fossil_headers_db2db5tests10unit_tests20hex_conversion_testss_42test_convert_hex_string_to_i64_large_value
FNDA:1,_RNvNtNtNtNtCs5Xp1JEPGtUd_17fossil_headers_db2db5tests10unit_tests20hex_conversion_testss_43test_convert_hex_string_to_i64_empty_string
FNDA:1,_RNvNtNtNtNtCs5Xp1JEPGtUd_17fossil_headers_db2db5tests10unit_tests20hex_conversion_testss_45test_convert_hex_string_to_i64_without_prefix
FNDA:1,_RNvNtNtNtNtCs5Xp1JEPGtUd_17fossil_headers_db2db5tests10unit_tests20hex_conversion_testss_49test_convert_hex_string_to_i64_invalid_characters
FNF:10
FNH:10
DA:15,1
DA:16,1
DA:17,1
DA:18,1
DA:19,1
DA:20,1
DA:23,1
DA:24,1
DA:25,1
DA:26,1
DA:27,1
DA:28,1
DA:31,1
DA:32,1
DA:33,1
DA:34,1
DA:35,1
DA:36,1
DA:39,1
DA:40,1
DA:41,1
DA:42,1
DA:43,1
DA:44,1
DA:47,1
DA:48,1
DA:49,1
DA:50,1
DA:51,1
DA:54,1
DA:55,1
DA:56,1
DA:57,1
DA:58,1
DA:61,1
DA:62,1
DA:63,1
DA:64,1
DA:65,1
DA:68,1
DA:69,1
DA:70,1
DA:71,1
DA:72,1
DA:80,1
DA:81,1
DA:82,1
DA:83,1
DA:87,1
DA:88,1
DA:89,1
BRF:0
BRH:0
LF:51
LH:51
end_of_record
SF:/home/ametel/source/fossil-headers-db/src/error_tests.rs
FN:68,_RNvNtNtNtCs5Xp1JEPGtUd_17fossil_headers_db11error_tests20error_scenario_tests24error_construction_testss_42test_all_error_variants_can_be_constructed
FN:129,_RNvNtNtNtCs5Xp1JEPGtUd_17fossil_headers_db11error_tests20error_scenario_tests16validation_testss_26test_error_message_content
FN:119,_RNvNtNtNtCs5Xp1JEPGtUd_17fossil_headers_db11error_tests20error_scenario_tests16validation_testss_28test_block_number_operations
FN:55,_RNvNtNtNtCs5Xp1JEPGtUd_17fossil_headers_db11error_tests20error_scenario_tests22blockchain_error_testss_38test_blockchain_error_debug_formatting
FN:14,_RNvNtNtNtCs5Xp1JEPGtUd_17fossil_headers_db11error_tests20error_scenario_tests22blockchain_error_testss_46test_blockchain_error_construction_and_display
FNDA:1,_RNvNtNtNtCs5Xp1JEPGtUd_17fossil_headers_db11error_tests20error_scenario_tests24error_construction_testss_42test_all_error_variants_can_be_constructed
FNDA:1,_RNvNtNtNtCs5Xp1JEPGtUd_17fossil_headers_db11error_tests20error_scenario_tests16validation_testss_26test_error_message_content
FNDA:1,_RNvNtNtNtCs5Xp1JEPGtUd_17fossil_headers_db11error_tests20error_scenario_tests16validation_testss_28test_block_number_operations
FNDA:1,_RNvNtNtNtCs5Xp1JEPGtUd_17fossil_headers_db11error_tests20error_scenario_tests22blockchain_error_testss_38test_blockchain_error_debug_formatting
FNDA:1,_RNvNtNtNtCs5Xp1JEPGtUd_17fossil_headers_db11error_tests20error_scenario_tests22blockchain_error_testss_46test_blockchain_error_construction_and_display
FNF:5
FNH:5
DA:14,1
DA:15,1
DA:16,1
DA:17,1
DA:18,1
DA:19,1
DA:21,1
DA:22,1
DA:23,1
DA:24,1
DA:25,1
DA:27,1
DA:28,1
DA:29,1
DA:30,1
DA:31,1
DA:33,1
DA:34,1
DA:35,1
DA:36,1
DA:37,1
DA:39,1
DA:40,1
DA:41,1
DA:42,1
DA:43,1
DA:45,1
DA:46,1
DA:47,1
DA:48,1
DA:49,1
DA:50,1
DA:51,1
DA:52,1
DA:55,1
DA:56,1
DA:57,1
DA:58,1
DA:59,1
DA:60,1
DA:61,1
DA:68,1
DA:69,1
DA:70,1
DA:71,1
DA:72,1
DA:73,1
DA:74,1
DA:75,1
DA:76,1
DA:77,1
DA:78,1
DA:79,1
DA:80,1
DA:81,1
DA:82,1
DA:83,1
DA:84,1
DA:85,1
DA:86,1
DA:87,1
DA:88,1
DA:89,1
DA:90,1
DA:91,1
DA:92,1
DA:93,1
DA:94,1
DA:95,1
DA:96,1
DA:97,1
DA:98,1
DA:99,1
DA:100,1
DA:101,1
DA:102,1
DA:103,1
DA:104,1
DA:107,12
DA:108,11
DA:109,11
DA:110,11
DA:111,11
DA:112,1
DA:119,1
DA:120,1
DA:121,1
DA:123,1
DA:124,1
DA:125,1
DA:126,1
DA:129,1
DA:130,1
DA:131,1
DA:132,1
DA:133,1
DA:134,1
DA:135,1
DA:136,1
BRF:0
BRH:0
LF:99
LH:99
end_of_record
SF:/home/ametel/source/fossil-headers-db/src/errors.rs
FN:101,_RINvMNtCscwo6F0TH2eV_17fossil_headers_db6errorsNtB3_15BlockchainError15block_not_foundNtNtCs8Ty2CzGA6U3_5alloc6string6StringECsaImZPb8KXhW_17fossil_headers_db
FN:122,_RINvMNtCscwo6F0TH2eV_17fossil_headers_db6errorsNtB3_15BlockchainError20database_transactionNtNtCs8Ty2CzGA6U3_5alloc6string6StringECsaImZPb8KXhW_17fossil_headers_db
FN:73,_RNvMNtCscwo6F0TH2eV_17fossil_headers_db6errorsNtB2_15BlockchainError11invalid_hex
FN:96,_RNvMNtCscwo6F0TH2eV_17fossil_headers_db6errorsNtB2_15BlockchainError11rpc_timeout
FN:171,_RNvMNtCscwo6F0TH2eV_17fossil_headers_db6errorsNtB2_15BlockchainError13invalid_range
FN:81,_RNvMNtCscwo6F0TH2eV_17fossil_headers_db6errorsNtB2_15BlockchainError14invalid_format
FN:177,_RNvMNtCscwo6F0TH2eV_17fossil_headers_db6errorsNtB2_15BlockchainError17concurrency_limit
FN:212,_RNvXs0_NtCscwo6F0TH2eV_17fossil_headers_db6errorsNtB5_15BlockchainErrorINtNtCs66KPHxksi63_4core7convert4FromNtNtCs2FBrBAOJKfS_7reqwest5error5ErrorE4from
FN:225,_RNvXs1_NtCscwo6F0TH2eV_17fossil_headers_db6errorsNtB5_15BlockchainErrorINtNtCs66KPHxksi63_4core7convert4FromNtNtCshZIPGAzgpHO_10serde_json5error5ErrorE4from
FN:232,_RNvXs2_NtCscwo6F0TH2eV_17fossil_headers_db6errorsNtB5_15BlockchainErrorINtNtCs66KPHxksi63_4core7convert4FromNtNtNtB1c_3num5error13ParseIntErrorE4from
FN:239,_RNvXs3_NtCscwo6F0TH2eV_17fossil_headers_db6errorsNtB5_15BlockchainErrorINtNtCs66KPHxksi63_4core7convert4FromNtCs29YP6ZSUuGH_4eyre6ReportE4from
FN:194,_RNvXs_NtCscwo6F0TH2eV_17fossil_headers_db6errorsNtB4_15BlockchainErrorINtNtCs66KPHxksi63_4core7convert4FromNtNtCseLlGDsSll4a_9sqlx_core5error5ErrorE4from
FN:136,_RINvMNtCscwo6F0TH2eV_17fossil_headers_db6errorsNtB3_15BlockchainError13configurationReB1k_EB5_
FN:136,_RINvMNtCscwo6F0TH2eV_17fossil_headers_db6errorsNtB3_15BlockchainError13configurationReNtNtCs8Ty2CzGA6U3_5alloc6string6StringEB5_
FN:129,_RINvMNtCscwo6F0TH2eV_17fossil_headers_db6errorsNtB3_15BlockchainError14database_queryNtNtCs8Ty2CzGA6U3_5alloc6string6StringEB5_
FN:88,_RINvMNtCscwo6F0TH2eV_17fossil_headers_db6errorsNtB3_15BlockchainError14rpc_connectionNtNtCs8Ty2CzGA6U3_5alloc6string6StringEB5_
FN:151,_RINvMNtCscwo6F0TH2eV_17fossil_headers_db6errorsNtB3_15BlockchainError16block_validationReEB5_
FN:115,_RINvMNtCscwo6F0TH2eV_17fossil_headers_db6errorsNtB3_15BlockchainError19database_connectionNtNtCs8Ty2CzGA6U3_5alloc6string6StringEB5_
FN:115,_RINvMNtCscwo6F0TH2eV_17fossil_headers_db6errorsNtB3_15BlockchainError19database_connectionReEB5_
FN:144,_RINvMNtCscwo6F0TH2eV_17fossil_headers_db6errorsNtB3_15BlockchainError7networkNtNtCs8Ty2CzGA6U3_5alloc6string6StringEB5_
FN:182,_RINvMNtCscwo6F0TH2eV_17fossil_headers_db6errorsNtB3_15BlockchainError8internalNtNtCs8Ty2CzGA6U3_5alloc6string6StringEB5_
FN:182,_RINvMNtCscwo6F0TH2eV_17fossil_headers_db6errorsNtB3_15BlockchainError8internalReEB5_
FN:101,_RINvMNtCscwo6F0TH2eV_17fossil_headers_db6errorsNtB3_15BlockchainError15block_not_foundpEB5_
FN:122,_RINvMNtCscwo6F0TH2eV_17fossil_headers_db6errorsNtB3_15BlockchainError20database_transactionpEB5_
FN:108,_RINvMNtCscwo6F0TH2eV_17fossil_headers_db6errorsNtB3_15BlockchainError21transaction_not_foundpEB5_
FN:159,_RINvMNtCscwo6F0TH2eV_17fossil_headers_db6errorsNtB3_15BlockchainError22transaction_validationppEB5_
FN:136,_RINvMNtCs5Xp1JEPGtUd_17fossil_headers_db6errorsNtB3_15BlockchainError13configurationppEB5_
FN:122,_RINvMNtCs5Xp1JEPGtUd_17fossil_headers_db6errorsNtB3_15BlockchainError20database_transactionpEB5_
FN:108,_RINvMNtCs5Xp1JEPGtUd_17fossil_headers_db6errorsNtB3_15BlockchainError21transaction_not_foundpEB5_
FN:159,_RINvMNtCs5Xp1JEPGtUd_17fossil_headers_db6errorsNtB3_15BlockchainError22transaction_validationppEB5_
FN:171,_RNvMNtCs5Xp1JEPGtUd_17fossil_headers_db6errorsNtB2_15BlockchainError13invalid_range
FN:177,_RNvMNtCs5Xp1JEPGtUd_17fossil_headers_db6errorsNtB2_15BlockchainError17concurrency_limit
FN:232,_RNvXs2_NtCs5Xp1JEPGtUd_17fossil_headers_db6errorsNtB5_15BlockchainErrorINtNtCs66KPHxksi63_4core7convert4FromNtNtNtB1c_3num5error13ParseIntErrorE4from
FN:239,_RNvXs3_NtCs5Xp1JEPGtUd_17fossil_headers_db6errorsNtB5_15BlockchainErrorINtNtCs66KPHxksi63_4core7convert4FromNtCs29YP6ZSUuGH_4eyre6ReportE4from
FN:129,_RINvMNtCs5Xp1JEPGtUd_17fossil_headers_db6errorsNtB3_15BlockchainError14database_queryNtNtCs8Ty2CzGA6U3_5alloc6string6StringEB5_
FN:88,_RINvMNtCs5Xp1JEPGtUd_17fossil_headers_db6errorsNtB3_15BlockchainError14rpc_connectionNtNtCs8Ty2CzGA6U3_5alloc6string6StringEB5_
FN:101,_RINvMNtCs5Xp1JEPGtUd_17fossil_headers_db6errorsNtB3_15BlockchainError15block_not_foundReEB5_
FN:151,_RINvMNtCs5Xp1JEPGtUd_17fossil_headers_db6errorsNtB3_15BlockchainError16block_validationReEB5_
FN:115,_RINvMNtCs5Xp1JEPGtUd_17fossil_headers_db6errorsNtB3_15BlockchainError19database_connectionNtNtCs8Ty2CzGA6U3_5alloc6string6StringEB5_
FN:144,_RINvMNtCs5Xp1JEPGtUd_17fossil_headers_db6errorsNtB3_15BlockchainError7networkNtNtCs8Ty2CzGA6U3_5alloc6string6StringEB5_
FN:182,_RINvMNtCs5Xp1JEPGtUd_17fossil_headers_db6errorsNtB3_15BlockchainError8internalNtNtCs8Ty2CzGA6U3_5alloc6string6StringEB5_
FN:182,_RINvMNtCs5Xp1JEPGtUd_17fossil_headers_db6errorsNtB3_15BlockchainError8internalReEB5_
FN:73,_RNvMNtCs5Xp1JEPGtUd_17fossil_headers_db6errorsNtB2_15BlockchainError11invalid_hex
FN:96,_RNvMNtCs5Xp1JEPGtUd_17fossil_headers_db6errorsNtB2_15BlockchainError11rpc_timeout
FN:81,_RNvMNtCs5Xp1JEPGtUd_17fossil_headers_db6errorsNtB2_15BlockchainError14invalid_format
FN:212,_RNvXs0_NtCs5Xp1JEPGtUd_17fossil_headers_db6errorsNtB5_15BlockchainErrorINtNtCs66KPHxksi63_4core7convert4FromNtNtCs2FBrBAOJKfS_7reqwest5error5ErrorE4from
FN:225,_RNvXs1_NtCs5Xp1JEPGtUd_17fossil_headers_db6errorsNtB5_15BlockchainErrorINtNtCs66KPHxksi63_4core7convert4FromNtNtCshZIPGAzgpHO_10serde_json5error5ErrorE4from
FN:194,_RNvXs_NtCs5Xp1JEPGtUd_17fossil_headers_db6errorsNtB4_15BlockchainErrorINtNtCs66KPHxksi63_4core7convert4FromNtNtCseLlGDsSll4a_9sqlx_core5error5ErrorE4from
FNDA:0,_RINvMNtCscwo6F0TH2eV_17fossil_headers_db6errorsNtB3_15BlockchainError15block_not_foundNtNtCs8Ty2CzGA6U3_5alloc6string6StringECsaImZPb8KXhW_17fossil_headers_db
FNDA:0,_RINvMNtCscwo6F0TH2eV_17fossil_headers_db6errorsNtB3_15BlockchainError20database_transactionNtNtCs8Ty2CzGA6U3_5alloc6string6StringECsaImZPb8KXhW_17fossil_headers_db
FNDA:0,_RNvMNtCscwo6F0TH2eV_17fossil_headers_db6errorsNtB2_15BlockchainError11invalid_hex
FNDA:0,_RNvMNtCscwo6F0TH2eV_17fossil_headers_db6errorsNtB2_15BlockchainError11rpc_timeout
FNDA:0,_RNvMNtCscwo6F0TH2eV_17fossil_headers_db6errorsNtB2_15BlockchainError13invalid_range
FNDA:0,_RNvMNtCscwo6F0TH2eV_17fossil_headers_db6errorsNtB2_15BlockchainError14invalid_format
FNDA:0,_RNvMNtCscwo6F0TH2eV_17fossil_headers_db6errorsNtB2_15BlockchainError17concurrency_limit
FNDA:2,_RNvXs0_NtCscwo6F0TH2eV_17fossil_headers_db6errorsNtB5_15BlockchainErrorINtNtCs66KPHxksi63_4core7convert4FromNtNtCs2FBrBAOJKfS_7reqwest5error5ErrorE4from
FNDA:0,_RNvXs1_NtCscwo6F0TH2eV_17fossil_headers_db6errorsNtB5_15BlockchainErrorINtNtCs66KPHxksi63_4core7convert4FromNtNtCshZIPGAzgpHO_10serde_json5error5ErrorE4from
FNDA:0,_RNvXs2_NtCscwo6F0TH2eV_17fossil_headers_db6errorsNtB5_15BlockchainErrorINtNtCs66KPHxksi63_4core7convert4FromNtNtNtB1c_3num5error13ParseIntErrorE4from
FNDA:0,_RNvXs3_NtCscwo6F0TH2eV_17fossil_headers_db6errorsNtB5_15BlockchainErrorINtNtCs66KPHxksi63_4core7convert4FromNtCs29YP6ZSUuGH_4eyre6ReportE4from
FNDA:0,_RNvXs_NtCscwo6F0TH2eV_17fossil_headers_db6errorsNtB4_15BlockchainErrorINtNtCs66KPHxksi63_4core7convert4FromNtNtCseLlGDsSll4a_9sqlx_core5error5ErrorE4from
FNDA:0,_RINvMNtCscwo6F0TH2eV_17fossil_headers_db6errorsNtB3_15BlockchainError13configurationReB1k_EB5_
FNDA:0,_RINvMNtCscwo6F0TH2eV_17fossil_headers_db6errorsNtB3_15BlockchainError13configurationReNtNtCs8Ty2CzGA6U3_5alloc6string6StringEB5_
FNDA:0,_RINvMNtCscwo6F0TH2eV_17fossil_headers_db6errorsNtB3_15BlockchainError14database_queryNtNtCs8Ty2CzGA6U3_5alloc6string6StringEB5_
FNDA:1,_RINvMNtCscwo6F0TH2eV_17fossil_headers_db6errorsNtB3_15BlockchainError14rpc_connectionNtNtCs8Ty2CzGA6U3_5alloc6string6StringEB5_
FNDA:0,_RINvMNtCscwo6F0TH2eV_17fossil_headers_db6errorsNtB3_15BlockchainError16block_validationReEB5_
FNDA:0,_RINvMNtCscwo6F0TH2eV_17fossil_headers_db6errorsNtB3_15BlockchainError19database_connectionNtNtCs8Ty2CzGA6U3_5alloc6string6StringEB5_
FNDA:0,_RINvMNtCscwo6F0TH2eV_17fossil_headers_db6errorsNtB3_15BlockchainError19database_connectionReEB5_
FNDA:2,_RINvMNtCscwo6F0TH2eV_17fossil_headers_db6errorsNtB3_15BlockchainError7networkNtNtCs8Ty2CzGA6U3_5alloc6string6StringEB5_
FNDA:3,_RINvMNtCscwo6F0TH2eV_17fossil_headers_db6errorsNtB3_15BlockchainError8internalNtNtCs8Ty2CzGA6U3_5alloc6string6StringEB5_
FNDA:0,_RINvMNtCscwo6F0TH2eV_17fossil_headers_db6errorsNtB3_15BlockchainError8internalReEB5_
FNDA:0,_RINvMNtCscwo6F0TH2eV_17fossil_headers_db6errorsNtB3_15BlockchainError15block_not_foundpEB5_
FNDA:0,_RINvMNtCscwo6F0TH2eV_17fossil_headers_db6errorsNtB3_15BlockchainError20database_transactionpEB5_
FNDA:0,_RINvMNtCscwo6F0TH2eV_17fossil_headers_db6errorsNtB3_15BlockchainError21transaction_not_foundpEB5_
FNDA:0,_RINvMNtCscwo6F0TH2eV_17fossil_headers_db6errorsNtB3_15BlockchainError22transaction_validationppEB5_
FNDA:0,_RINvMNtCs5Xp1JEPGtUd_17fossil_headers_db6errorsNtB3_15BlockchainError13configurationppEB5_
FNDA:0,_RINvMNtCs5Xp1JEPGtUd_17fossil_headers_db6errorsNtB3_15BlockchainError20database_transactionpEB5_
FNDA:0,_RINvMNtCs5Xp1JEPGtUd_17fossil_headers_db6errorsNtB3_15BlockchainError21transaction_not_foundpEB5_
FNDA:0,_RINvMNtCs5Xp1JEPGtUd_17fossil_headers_db6errorsNtB3_15BlockchainError22transaction_validationppEB5_
FNDA:0,_RNvMNtCs5Xp1JEPGtUd_17fossil_headers_db6errorsNtB2_15BlockchainError13invalid_range
FNDA:0,_RNvMNtCs5Xp1JEPGtUd_17fossil_headers_db6errorsNtB2_15BlockchainError17concurrency_limit
FNDA:0,_RNvXs2_NtCs5Xp1JEPGtUd_17fossil_headers_db6errorsNtB5_15BlockchainErrorINtNtCs66KPHxksi63_4core7convert4FromNtNtNtB1c_3num5error13ParseIntErrorE4from
FNDA:0,_RNvXs3_NtCs5Xp1JEPGtUd_17fossil_headers_db6errorsNtB5_15BlockchainErrorINtNtCs66KPHxksi63_4core7convert4FromNtCs29YP6ZSUuGH_4eyre6ReportE4from
FNDA:0,_RINvMNtCs5Xp1JEPGtUd_17fossil_headers_db6errorsNtB3_15BlockchainError14database_queryNtNtCs8Ty2CzGA6U3_5alloc6string6StringEB5_
FNDA:0,_RINvMNtCs5Xp1JEPGtUd_17fossil_headers_db6errorsNtB3_15BlockchainError14rpc_connectionNtNtCs8Ty2CzGA6U3_5alloc6string6StringEB5_
FNDA:25,_RINvMNtCs5Xp1JEPGtUd_17fossil_headers_db6errorsNtB3_15BlockchainError15block_not_foundReEB5_
FNDA:0,_RINvMNtCs5Xp1JEPGtUd_17fossil_headers_db6errorsNtB3_15BlockchainError16block_validationReEB5_
FNDA:1,_RINvMNtCs5Xp1JEPGtUd_17fossil_headers_db6errorsNtB3_15BlockchainError19database_connectionNtNtCs8Ty2CzGA6U3_5alloc6string6StringEB5_
FNDA:0,_RINvMNtCs5Xp1JEPGtUd_17fossil_headers_db6errorsNtB3_15BlockchainError7networkNtNtCs8Ty2CzGA6U3_5alloc6string6StringEB5_
FNDA:5,_RINvMNtCs5Xp1JEPGtUd_17fossil_headers_db6errorsNtB3_15BlockchainError8internalNtNtCs8Ty2CzGA6U3_5alloc6string6StringEB5_
FNDA:3,_RINvMNtCs5Xp1JEPGtUd_17fossil_headers_db6errorsNtB3_15BlockchainError8internalReEB5_
FNDA:11,_RNvMNtCs5Xp1JEPGtUd_17fossil_headers_db6errorsNtB2_15BlockchainError11invalid_hex
FNDA:0,_RNvMNtCs5Xp1JEPGtUd_17fossil_headers_db6errorsNtB2_15BlockchainError11rpc_timeout
FNDA:2830,_RNvMNtCs5Xp1JEPGtUd_17fossil_headers_db6errorsNtB2_15BlockchainError14invalid_format
FNDA:0,_RNvXs0_NtCs5Xp1JEPGtUd_17fossil_headers_db6errorsNtB5_15BlockchainErrorINtNtCs66KPHxksi63_4core7convert4FromNtNtCs2FBrBAOJKfS_7reqwest5error5ErrorE4from
FNDA:5,_RNvXs1_NtCs5Xp1JEPGtUd_17fossil_headers_db6errorsNtB5_15BlockchainErrorINtNtCs66KPHxksi63_4core7convert4FromNtNtCshZIPGAzgpHO_10serde_json5error5ErrorE4from
FNDA:1,_RNvXs_NtCs5Xp1JEPGtUd_17fossil_headers_db6errorsNtB4_15BlockchainErrorINtNtCs66KPHxksi63_4core7convert4FromNtNtCseLlGDsSll4a_9sqlx_core5error5ErrorE4from
FNF:21
FNH:10
DA:73,11
DA:74,11
DA:75,11
DA:76,11
DA:77,11
DA:81,2830
DA:82,2830
DA:83,2830
DA:84,2830
DA:85,2830
DA:88,1
DA:89,1
DA:90,1
DA:91,1
DA:92,1
DA:96,0
DA:97,0
DA:98,0
DA:101,25
DA:102,25
DA:103,25
DA:104,25
DA:105,25
DA:108,0
DA:109,0
DA:110,0
DA:111,0
DA:112,0
DA:115,1
DA:116,1
DA:117,1
DA:118,1
DA:119,1
DA:122,0
DA:123,0
DA:124,0
DA:125,0
DA:126,0
DA:129,0
DA:130,0
DA:131,0
DA:132,0
DA:133,0
DA:136,0
DA:137,0
DA:138,0
DA:139,0
DA:140,0
DA:141,0
DA:144,2
DA:145,2
DA:146,2
DA:147,2
DA:148,2
DA:151,0
DA:152,0
DA:153,0
DA:154,0
DA:155,0
DA:156,0
DA:159,0
DA:160,0
DA:161,0
DA:162,0
DA:163,0
DA:164,0
DA:165,0
DA:166,0
DA:167,0
DA:171,0
DA:172,0
DA:173,0
DA:177,0
DA:178,0
DA:179,0
DA:182,11
DA:183,11
DA:184,11
DA:185,11
DA:186,11
DA:194,1
DA:195,1
DA:196,0
DA:197,0
DA:200,0
DA:203,0
DA:205,1
DA:207,1
DA:212,2
DA:213,2
DA:214,0
DA:215,2
DA:216,0
DA:218,2
DA:220,2
DA:225,5
DA:226,5
DA:227,5
DA:232,0
DA:233,0
DA:234,0
DA:239,0
DA:240,0
DA:241,0
BRF:0
BRH:0
LF:104
LH:47
end_of_record
SF:/home/ametel/source/fossil-headers-db/src/indexer/batch_service.rs
FN:424,_RNCNCNCNvMs2_NtNtCscwo6F0TH2eV_17fossil_headers_db7indexer13batch_serviceINtBb_12BatchIndexerNtNtBf_3rpc21EthereumJsonRpcClientE24create_block_fetch_tasks000Bf_
FN:437,_RNCNCNCNvMs2_NtNtCscwo6F0TH2eV_17fossil_headers_db7indexer13batch_serviceINtBb_12BatchIndexerNtNtBf_3rpc21EthereumJsonRpcClientE24create_block_fetch_tasks00s0_0Bf_
FN:436,_RNCNCNCNvMs2_NtNtCscwo6F0TH2eV_17fossil_headers_db7indexer13batch_serviceINtBb_12BatchIndexerNtNtBf_3rpc21EthereumJsonRpcClientE24create_block_fetch_tasks00s_0Bf_
FN:608,_RNCNCNvMs2_NtNtCscwo6F0TH2eV_17fossil_headers_db7indexer13batch_serviceINtB9_12BatchIndexerNtNtBd_3rpc21EthereumJsonRpcClientE20verify_blocks_stored00Bd_
FN:545,_RNCNCNvMs2_NtNtCscwo6F0TH2eV_17fossil_headers_db7indexer13batch_serviceINtB9_12BatchIndexerNtNtBd_3rpc21EthereumJsonRpcClientE23save_blocks_to_database00Bd_
FN:563,_RNCNCNvMs2_NtNtCscwo6F0TH2eV_17fossil_headers_db7indexer13batch_serviceINtB9_12BatchIndexerNtNtBd_3rpc21EthereumJsonRpcClientE23save_blocks_to_database0s0_0Bd_
FN:588,_RNCNCNvMs2_NtNtCscwo6F0TH2eV_17fossil_headers_db7indexer13batch_serviceINtB9_12BatchIndexerNtNtBd_3rpc21EthereumJsonRpcClientE23save_blocks_to_database0s1_0Bd_
FN:558,_RNCNCNvMs2_NtNtCscwo6F0TH2eV_17fossil_headers_db7indexer13batch_serviceINtB9_12BatchIndexerNtNtBd_3rpc21EthereumJsonRpcClientE23save_blocks_to_database0s_0Bd_
FN:420,_RNCNCNvMs2_NtNtCscwo6F0TH2eV_17fossil_headers_db7indexer13batch_serviceINtB9_12BatchIndexerNtNtBd_3rpc21EthereumJsonRpcClientE24create_block_fetch_tasks00Bd_
FN:335,_RNCNvMs2_NtNtCscwo6F0TH2eV_17fossil_headers_db7indexer13batch_serviceINtB7_12BatchIndexerNtNtBb_3rpc21EthereumJsonRpcClientE17index_block_range0Bb_
FN:602,_RNCNvMs2_NtNtCscwo6F0TH2eV_17fossil_headers_db7indexer13batch_serviceINtB7_12BatchIndexerNtNtBb_3rpc21EthereumJsonRpcClientE19apply_retry_backoff0Bb_
FN:395,_RNCNvMs2_NtNtCscwo6F0TH2eV_17fossil_headers_db7indexer13batch_serviceINtB7_12BatchIndexerNtNtBb_3rpc21EthereumJsonRpcClientE19fetch_block_headers0Bb_
FN:274,_RNCNvMs2_NtNtCscwo6F0TH2eV_17fossil_headers_db7indexer13batch_serviceINtB7_12BatchIndexerNtNtBb_3rpc21EthereumJsonRpcClientE20get_current_metadata0Bb_
FN:607,_RNCNvMs2_NtNtCscwo6F0TH2eV_17fossil_headers_db7indexer13batch_serviceINtB7_12BatchIndexerNtNtBb_3rpc21EthereumJsonRpcClientE20verify_blocks_stored0Bb_
FN:288,_RNCNvMs2_NtNtCscwo6F0TH2eV_17fossil_headers_db7indexer13batch_serviceINtB7_12BatchIndexerNtNtBb_3rpc21EthereumJsonRpcClientE21get_total_block_count0Bb_
FN:295,_RNCNvMs2_NtNtCscwo6F0TH2eV_17fossil_headers_db7indexer13batch_serviceINtB7_12BatchIndexerNtNtBb_3rpc21EthereumJsonRpcClientE23get_latest_block_number0Bb_
FN:543,_RNCNvMs2_NtNtCscwo6F0TH2eV_17fossil_headers_db7indexer13batch_serviceINtB7_12BatchIndexerNtNtBb_3rpc21EthereumJsonRpcClientE23save_blocks_to_database0Bb_
FN:416,_RNCNvMs2_NtNtCscwo6F0TH2eV_17fossil_headers_db7indexer13batch_serviceINtB7_12BatchIndexerNtNtBb_3rpc21EthereumJsonRpcClientE24create_block_fetch_tasks0Bb_
FN:521,_RNCNvMs2_NtNtCscwo6F0TH2eV_17fossil_headers_db7indexer13batch_serviceINtB7_12BatchIndexerNtNtBb_3rpc21EthereumJsonRpcClientE28apply_backpressure_if_needed0Bb_
FN:242,_RNCNvMs2_NtNtCscwo6F0TH2eV_17fossil_headers_db7indexer13batch_serviceINtB7_12BatchIndexerNtNtBb_3rpc21EthereumJsonRpcClientE5index0Bb_
FN:330,_RNvMs2_NtNtCscwo6F0TH2eV_17fossil_headers_db7indexer13batch_serviceINtB5_12BatchIndexerNtNtB9_3rpc21EthereumJsonRpcClientE17index_block_rangeB9_
FN:602,_RNvMs2_NtNtCscwo6F0TH2eV_17fossil_headers_db7indexer13batch_serviceINtB5_12BatchIndexerNtNtB9_3rpc21EthereumJsonRpcClientE19apply_retry_backoffB9_
FN:391,_RNvMs2_NtNtCscwo6F0TH2eV_17fossil_headers_db7indexer13batch_serviceINtB5_12BatchIndexerNtNtB9_3rpc21EthereumJsonRpcClientE19fetch_block_headersB9_
FN:272,_RNvMs2_NtNtCscwo6F0TH2eV_17fossil_headers_db7indexer13batch_serviceINtB5_12BatchIndexerNtNtB9_3rpc21EthereumJsonRpcClientE20get_current_metadataB9_
FN:607,_RNvMs2_NtNtCscwo6F0TH2eV_17fossil_headers_db7indexer13batch_serviceINtB5_12BatchIndexerNtNtB9_3rpc21EthereumJsonRpcClientE20verify_blocks_storedB9_
FN:313,_RNvMs2_NtNtCscwo6F0TH2eV_17fossil_headers_db7indexer13batch_serviceINtB5_12BatchIndexerNtNtB9_3rpc21EthereumJsonRpcClientE21calculate_block_rangeB9_
FN:288,_RNvMs2_NtNtCscwo6F0TH2eV_17fossil_headers_db7indexer13batch_serviceINtB5_12BatchIndexerNtNtB9_3rpc21EthereumJsonRpcClientE21get_total_block_countB9_
FN:295,_RNvMs2_NtNtCscwo6F0TH2eV_17fossil_headers_db7indexer13batch_serviceINtB5_12BatchIndexerNtNtB9_3rpc21EthereumJsonRpcClientE23get_latest_block_numberB9_
FN:302,_RNvMs2_NtNtCscwo6F0TH2eV_17fossil_headers_db7indexer13batch_serviceINtB5_12BatchIndexerNtNtB9_3rpc21EthereumJsonRpcClientE23is_backfilling_completeB9_
FN:444,_RNvMs2_NtNtCscwo6F0TH2eV_17fossil_headers_db7indexer13batch_serviceINtB5_12BatchIndexerNtNtB9_3rpc21EthereumJsonRpcClientE23process_block_responsesB9_
FN:538,_RNvMs2_NtNtCscwo6F0TH2eV_17fossil_headers_db7indexer13batch_serviceINtB5_12BatchIndexerNtNtB9_3rpc21EthereumJsonRpcClientE23save_blocks_to_databaseB9_
FN:405,_RNvMs2_NtNtCscwo6F0TH2eV_17fossil_headers_db7indexer13batch_serviceINtB5_12BatchIndexerNtNtB9_3rpc21EthereumJsonRpcClientE24create_block_fetch_tasksB9_
FN:514,_RNvMs2_NtNtCscwo6F0TH2eV_17fossil_headers_db7indexer13batch_serviceINtB5_12BatchIndexerNtNtB9_3rpc21EthereumJsonRpcClientE28apply_backpressure_if_neededB9_
FN:226,_RNvMs2_NtNtCscwo6F0TH2eV_17fossil_headers_db7indexer13batch_serviceINtB5_12BatchIndexerNtNtB9_3rpc21EthereumJsonRpcClientE3newB9_
FN:242,_RNvMs2_NtNtCscwo6F0TH2eV_17fossil_headers_db7indexer13batch_serviceINtB5_12BatchIndexerNtNtB9_3rpc21EthereumJsonRpcClientE5indexB9_
FN:42,_RNvMNtNtCscwo6F0TH2eV_17fossil_headers_db7indexer13batch_serviceNtB2_16BatchIndexConfig7builder
FN:113,_RNvMs0_NtNtCscwo6F0TH2eV_17fossil_headers_db7indexer13batch_serviceNtB5_23BatchIndexConfigBuilder11max_retries
FN:125,_RNvMs0_NtNtCscwo6F0TH2eV_17fossil_headers_db7indexer13batch_serviceNtB5_23BatchIndexConfigBuilder11rpc_timeout
FN:95,_RNvMs0_NtNtCscwo6F0TH2eV_17fossil_headers_db7indexer13batch_serviceNtB5_23BatchIndexConfigBuilder12conservative
FN:149,_RNvMs0_NtNtCscwo6F0TH2eV_17fossil_headers_db7indexer13batch_serviceNtB5_23BatchIndexConfigBuilder12task_timeout
FN:119,_RNvMs0_NtNtCscwo6F0TH2eV_17fossil_headers_db7indexer13batch_serviceNtB5_23BatchIndexConfigBuilder13poll_interval
FN:86,_RNvMs0_NtNtCscwo6F0TH2eV_17fossil_headers_db7indexer13batch_serviceNtB5_23BatchIndexConfigBuilder15high_throughput
FN:131,_RNvMs0_NtNtCscwo6F0TH2eV_17fossil_headers_db7indexer13batch_serviceNtB5_23BatchIndexConfigBuilder16index_batch_size
FN:137,_RNvMs0_NtNtCscwo6F0TH2eV_17fossil_headers_db7indexer13batch_serviceNtB5_23BatchIndexConfigBuilder16should_index_txs
FN:143,_RNvMs0_NtNtCscwo6F0TH2eV_17fossil_headers_db7indexer13batch_serviceNtB5_23BatchIndexConfigBuilder23max_concurrent_requests
FN:73,_RNvMs0_NtNtCscwo6F0TH2eV_17fossil_headers_db7indexer13batch_serviceNtB5_23BatchIndexConfigBuilder3new
FN:154,_RNvMs0_NtNtCscwo6F0TH2eV_17fossil_headers_db7indexer13batch_serviceNtB5_23BatchIndexConfigBuilder5build
FN:104,_RNvMs0_NtNtCscwo6F0TH2eV_17fossil_headers_db7indexer13batch_serviceNtB5_23BatchIndexConfigBuilder7testing
FN:210,_RNvXs1_NtNtCscwo6F0TH2eV_17fossil_headers_db7indexer13batch_serviceNtB5_23BatchIndexConfigBuilderNtNtCs66KPHxksi63_4core7default7Default7default
FN:48,_RNvXs_NtNtCscwo6F0TH2eV_17fossil_headers_db7indexer13batch_serviceNtB4_16BatchIndexConfigNtNtCs66KPHxksi63_4core7default7Default7default
FN:42,_RNvMNtNtCs5Xp1JEPGtUd_17fossil_headers_db7indexer13batch_serviceNtB2_16BatchIndexConfig7builder
FN:113,_RNvMs0_NtNtCs5Xp1JEPGtUd_17fossil_headers_db7indexer13batch_serviceNtB5_23BatchIndexConfigBuilder11max_retries
FN:125,_RNvMs0_NtNtCs5Xp1JEPGtUd_17fossil_headers_db7indexer13batch_serviceNtB5_23BatchIndexConfigBuilder11rpc_timeout
FN:95,_RNvMs0_NtNtCs5Xp1JEPGtUd_17fossil_headers_db7indexer13batch_serviceNtB5_23BatchIndexConfigBuilder12conservative
FN:149,_RNvMs0_NtNtCs5Xp1JEPGtUd_17fossil_headers_db7indexer13batch_serviceNtB5_23BatchIndexConfigBuilder12task_timeout
FN:119,_RNvMs0_NtNtCs5Xp1JEPGtUd_17fossil_headers_db7indexer13batch_serviceNtB5_23BatchIndexConfigBuilder13poll_interval
FN:86,_RNvMs0_NtNtCs5Xp1JEPGtUd_17fossil_headers_db7indexer13batch_serviceNtB5_23BatchIndexConfigBuilder15high_throughput
FN:131,_RNvMs0_NtNtCs5Xp1JEPGtUd_17fossil_headers_db7indexer13batch_serviceNtB5_23BatchIndexConfigBuilder16index_batch_size
FN:137,_RNvMs0_NtNtCs5Xp1JEPGtUd_17fossil_headers_db7indexer13batch_serviceNtB5_23BatchIndexConfigBuilder16should_index_txs
FN:143,_RNvMs0_NtNtCs5Xp1JEPGtUd_17fossil_headers_db7indexer13batch_serviceNtB5_23BatchIndexConfigBuilder23max_concurrent_requests
FN:73,_RNvMs0_NtNtCs5Xp1JEPGtUd_17fossil_headers_db7indexer13batch_serviceNtB5_23BatchIndexConfigBuilder3new
FN:154,_RNvMs0_NtNtCs5Xp1JEPGtUd_17fossil_headers_db7indexer13batch_serviceNtB5_23BatchIndexConfigBuilder5build
FN:104,_RNvMs0_NtNtCs5Xp1JEPGtUd_17fossil_headers_db7indexer13batch_serviceNtB5_23BatchIndexConfigBuilder7testing
FN:210,_RNvXs1_NtNtCs5Xp1JEPGtUd_17fossil_headers_db7indexer13batch_serviceNtB5_23BatchIndexConfigBuilderNtNtCs66KPHxksi63_4core7default7Default7default
FN:48,_RNvXs_NtNtCs5Xp1JEPGtUd_17fossil_headers_db7indexer13batch_serviceNtB4_16BatchIndexConfigNtNtCs66KPHxksi63_4core7default7Default7default
FN:424,_RNCNCNCNvMs2_NtNtCs5Xp1JEPGtUd_17fossil_headers_db7indexer13batch_serviceINtBb_12BatchIndexerNtNtBd_10test_utils15MockRpcProviderE24create_block_fetch_tasks000Bf_
FN:437,_RNCNCNCNvMs2_NtNtCs5Xp1JEPGtUd_17fossil_headers_db7indexer13batch_serviceINtBb_12BatchIndexerNtNtBd_10test_utils15MockRpcProviderE24create_block_fetch_tasks00s0_0Bf_
FN:436,_RNCNCNCNvMs2_NtNtCs5Xp1JEPGtUd_17fossil_headers_db7indexer13batch_serviceINtBb_12BatchIndexerNtNtBd_10test_utils15MockRpcProviderE24create_block_fetch_tasks00s_0Bf_
FN:608,_RNCNCNvMs2_NtNtCs5Xp1JEPGtUd_17fossil_headers_db7indexer13batch_serviceINtB9_12BatchIndexerNtNtBb_10test_utils15MockRpcProviderE20verify_blocks_stored00Bd_
FN:545,_RNCNCNvMs2_NtNtCs5Xp1JEPGtUd_17fossil_headers_db7indexer13batch_serviceINtB9_12BatchIndexerNtNtBb_10test_utils15MockRpcProviderE23save_blocks_to_database00Bd_
FN:563,_RNCNCNvMs2_NtNtCs5Xp1JEPGtUd_17fossil_headers_db7indexer13batch_serviceINtB9_12BatchIndexerNtNtBb_10test_utils15MockRpcProviderE23save_blocks_to_database0s0_0Bd_
FN:588,_RNCNCNvMs2_NtNtCs5Xp1JEPGtUd_17fossil_headers_db7indexer13batch_serviceINtB9_12BatchIndexerNtNtBb_10test_utils15MockRpcProviderE23save_blocks_to_database0s1_0Bd_
FN:558,_RNCNCNvMs2_NtNtCs5Xp1JEPGtUd_17fossil_headers_db7indexer13batch_serviceINtB9_12BatchIndexerNtNtBb_10test_utils15MockRpcProviderE23save_blocks_to_database0s_0Bd_
FN:420,_RNCNCNvMs2_NtNtCs5Xp1JEPGtUd_17fossil_headers_db7indexer13batch_serviceINtB9_12BatchIndexerNtNtBb_10test_utils15MockRpcProviderE24create_block_fetch_tasks00Bd_
FN:335,_RNCNvMs2_NtNtCs5Xp1JEPGtUd_17fossil_headers_db7indexer13batch_serviceINtB7_12BatchIndexerNtNtB9_10test_utils15MockRpcProviderE17index_block_range0Bb_
FN:602,_RNCNvMs2_NtNtCs5Xp1JEPGtUd_17fossil_headers_db7indexer13batch_serviceINtB7_12BatchIndexerNtNtB9_10test_utils15MockRpcProviderE19apply_retry_backoff0Bb_
FN:395,_RNCNvMs2_NtNtCs5Xp1JEPGtUd_17fossil_headers_db7indexer13batch_serviceINtB7_12BatchIndexerNtNtB9_10test_utils15MockRpcProviderE19fetch_block_headers0Bb_
FN:274,_RNCNvMs2_NtNtCs5Xp1JEPGtUd_17fossil_headers_db7indexer13batch_serviceINtB7_12BatchIndexerNtNtB9_10test_utils15MockRpcProviderE20get_current_metadata0Bb_
FN:607,_RNCNvMs2_NtNtCs5Xp1JEPGtUd_17fossil_headers_db7indexer13batch_serviceINtB7_12BatchIndexerNtNtB9_10test_utils15MockRpcProviderE20verify_blocks_stored0Bb_
FN:288,_RNCNvMs2_NtNtCs5Xp1JEPGtUd_17fossil_headers_db7indexer13batch_serviceINtB7_12BatchIndexerNtNtB9_10test_utils15MockRpcProviderE21get_total_block_count0Bb_
FN:295,_RNCNvMs2_NtNtCs5Xp1JEPGtUd_17fossil_headers_db7indexer13batch_serviceINtB7_12BatchIndexerNtNtB9_10test_utils15MockRpcProviderE23get_latest_block_number0Bb_
FN:543,_RNCNvMs2_NtNtCs5Xp1JEPGtUd_17fossil_headers_db7indexer13batch_serviceINtB7_12BatchIndexerNtNtB9_10test_utils15MockRpcProviderE23save_blocks_to_database0Bb_
FN:416,_RNCNvMs2_NtNtCs5Xp1JEPGtUd_17fossil_headers_db7indexer13batch_serviceINtB7_12BatchIndexerNtNtB9_10test_utils15MockRpcProviderE24create_block_fetch_tasks0Bb_
FN:521,_RNCNvMs2_NtNtCs5Xp1JEPGtUd_17fossil_headers_db7indexer13batch_serviceINtB7_12BatchIndexerNtNtB9_10test_utils15MockRpcProviderE28apply_backpressure_if_needed0Bb_
FN:242,_RNCNvMs2_NtNtCs5Xp1JEPGtUd_17fossil_headers_db7indexer13batch_serviceINtB7_12BatchIndexerNtNtB9_10test_utils15MockRpcProviderE5index0Bb_
FN:330,_RNvMs2_NtNtCs5Xp1JEPGtUd_17fossil_headers_db7indexer13batch_serviceINtB5_12BatchIndexerNtNtB7_10test_utils15MockRpcProviderE17index_block_rangeB9_
FN:602,_RNvMs2_NtNtCs5Xp1JEPGtUd_17fossil_headers_db7indexer13batch_serviceINtB5_12BatchIndexerNtNtB7_10test_utils15MockRpcProviderE19apply_retry_backoffB9_
FN:391,_RNvMs2_NtNtCs5Xp1JEPGtUd_17fossil_headers_db7indexer13batch_serviceINtB5_12BatchIndexerNtNtB7_10test_utils15MockRpcProviderE19fetch_block_headersB9_
FN:272,_RNvMs2_NtNtCs5Xp1JEPGtUd_17fossil_headers_db7indexer13batch_serviceINtB5_12BatchIndexerNtNtB7_10test_utils15MockRpcProviderE20get_current_metadataB9_
FN:607,_RNvMs2_NtNtCs5Xp1JEPGtUd_17fossil_headers_db7indexer13batch_serviceINtB5_12BatchIndexerNtNtB7_10test_utils15MockRpcProviderE20verify_blocks_storedB9_
FN:313,_RNvMs2_NtNtCs5Xp1JEPGtUd_17fossil_headers_db7indexer13batch_serviceINtB5_12BatchIndexerNtNtB7_10test_utils15MockRpcProviderE21calculate_block_rangeB9_
FN:288,_RNvMs2_NtNtCs5Xp1JEPGtUd_17fossil_headers_db7indexer13batch_serviceINtB5_12BatchIndexerNtNtB7_10test_utils15MockRpcProviderE21get_total_block_countB9_
FN:295,_RNvMs2_NtNtCs5Xp1JEPGtUd_17fossil_headers_db7indexer13batch_serviceINtB5_12BatchIndexerNtNtB7_10test_utils15MockRpcProviderE23get_latest_block_numberB9_
FN:302,_RNvMs2_NtNtCs5Xp1JEPGtUd_17fossil_headers_db7indexer13batch_serviceINtB5_12BatchIndexerNtNtB7_10test_utils15MockRpcProviderE23is_backfilling_completeB9_
FN:444,_RNvMs2_NtNtCs5Xp1JEPGtUd_17fossil_headers_db7indexer13batch_serviceINtB5_12BatchIndexerNtNtB7_10test_utils15MockRpcProviderE23process_block_responsesB9_
FN:538,_RNvMs2_NtNtCs5Xp1JEPGtUd_17fossil_headers_db7indexer13batch_serviceINtB5_12BatchIndexerNtNtB7_10test_utils15MockRpcProviderE23save_blocks_to_databaseB9_
FN:405,_RNvMs2_NtNtCs5Xp1JEPGtUd_17fossil_headers_db7indexer13batch_serviceINtB5_12BatchIndexerNtNtB7_10test_utils15MockRpcProviderE24create_block_fetch_tasksB9_
FN:514,_RNvMs2_NtNtCs5Xp1JEPGtUd_17fossil_headers_db7indexer13batch_serviceINtB5_12BatchIndexerNtNtB7_10test_utils15MockRpcProviderE28apply_backpressure_if_neededB9_
FN:226,_RNvMs2_NtNtCs5Xp1JEPGtUd_17fossil_headers_db7indexer13batch_serviceINtB5_12BatchIndexerNtNtB7_10test_utils15MockRpcProviderE3newB9_
FN:242,_RNvMs2_NtNtCs5Xp1JEPGtUd_17fossil_headers_db7indexer13batch_serviceINtB5_12BatchIndexerNtNtB7_10test_utils15MockRpcProviderE5indexB9_
FN:677,_RNvNtNtNtCs5Xp1JEPGtUd_17fossil_headers_db7indexer13batch_service5tests22get_fixtures_for_tests
FN:854,_RNCNCINvNCNvNtNtNtCs5Xp1JEPGtUd_17fossil_headers_db7indexer13batch_service5testss_24test_batch_index_with_tx024test_batch_index_with_txNtNtCs3fCLpenLmI3_13sqlx_postgres7options16PgConnectOptionsE00Bg_
FN:762,_RNCNCINvNCNvNtNtNtCs5Xp1JEPGtUd_17fossil_headers_db7indexer13batch_service5testss_37test_batch_index_default_headers_only037test_batch_index_default_headers_onlyNtNtCs3fCLpenLmI3_13sqlx_postgres7options16PgConnectOptionsE00Bg_
FN:961,_RNCNCINvNCNvNtNtNtCs5Xp1JEPGtUd_17fossil_headers_db7indexer13batch_service5testss_66test_quick_index_always_index_away_from_latest_blocknumber_with_tx066test_quick_index_always_index_away_from_latest_blocknumber_with_txNtNtCs3fCLpenLmI3_13sqlx_postgres7options16PgConnectOptionsE00Bg_
FN:677,_RNCNvNtNtNtCs5Xp1JEPGtUd_17fossil_headers_db7indexer13batch_service5tests22get_fixtures_for_tests0B9_
FNDA:0,_RNCNCNCNvMs2_NtNtCscwo6F0TH2eV_17fossil_headers_db7indexer13batch_serviceINtBb_12BatchIndexerNtNtBf_3rpc21EthereumJsonRpcClientE24create_block_fetch_tasks000Bf_
FNDA:0,_RNCNCNCNvMs2_NtNtCscwo6F0TH2eV_17fossil_headers_db7indexer13batch_serviceINtBb_12BatchIndexerNtNtBf_3rpc21EthereumJsonRpcClientE24create_block_fetch_tasks00s0_0Bf_
FNDA:0,_RNCNCNCNvMs2_NtNtCscwo6F0TH2eV_17fossil_headers_db7indexer13batch_serviceINtBb_12BatchIndexerNtNtBf_3rpc21EthereumJsonRpcClientE24create_block_fetch_tasks00s_0Bf_
FNDA:0,_RNCNCNvMs2_NtNtCscwo6F0TH2eV_17fossil_headers_db7indexer13batch_serviceINtB9_12BatchIndexerNtNtBd_3rpc21EthereumJsonRpcClientE20verify_blocks_stored00Bd_
FNDA:0,_RNCNCNvMs2_NtNtCscwo6F0TH2eV_17fossil_headers_db7indexer13batch_serviceINtB9_12BatchIndexerNtNtBd_3rpc21EthereumJsonRpcClientE23save_blocks_to_database00Bd_
FNDA:0,_RNCNCNvMs2_NtNtCscwo6F0TH2eV_17fossil_headers_db7indexer13batch_serviceINtB9_12BatchIndexerNtNtBd_3rpc21EthereumJsonRpcClientE23save_blocks_to_database0s0_0Bd_
FNDA:0,_RNCNCNvMs2_NtNtCscwo6F0TH2eV_17fossil_headers_db7indexer13batch_serviceINtB9_12BatchIndexerNtNtBd_3rpc21EthereumJsonRpcClientE23save_blocks_to_database0s1_0Bd_
FNDA:24,_RNCNCNvMs2_NtNtCscwo6F0TH2eV_17fossil_headers_db7indexer13batch_serviceINtB9_12BatchIndexerNtNtBd_3rpc21EthereumJsonRpcClientE23save_blocks_to_database0s_0Bd_
FNDA:15,_RNCNCNvMs2_NtNtCscwo6F0TH2eV_17fossil_headers_db7indexer13batch_serviceINtB9_12BatchIndexerNtNtBd_3rpc21EthereumJsonRpcClientE24create_block_fetch_tasks00Bd_
FNDA:3,_RNCNvMs2_NtNtCscwo6F0TH2eV_17fossil_headers_db7indexer13batch_serviceINtB7_12BatchIndexerNtNtBb_3rpc21EthereumJsonRpcClientE17index_block_range0Bb_
FNDA:0,_RNCNvMs2_NtNtCscwo6F0TH2eV_17fossil_headers_db7indexer13batch_serviceINtB7_12BatchIndexerNtNtBb_3rpc21EthereumJsonRpcClientE19apply_retry_backoff0Bb_
FNDA:3,_RNCNvMs2_NtNtCscwo6F0TH2eV_17fossil_headers_db7indexer13batch_serviceINtB7_12BatchIndexerNtNtBb_3rpc21EthereumJsonRpcClientE19fetch_block_headers0Bb_
FNDA:6,_RNCNvMs2_NtNtCscwo6F0TH2eV_17fossil_headers_db7indexer13batch_serviceINtB7_12BatchIndexerNtNtBb_3rpc21EthereumJsonRpcClientE20get_current_metadata0Bb_
FNDA:3,_RNCNvMs2_NtNtCscwo6F0TH2eV_17fossil_headers_db7indexer13batch_serviceINtB7_12BatchIndexerNtNtBb_3rpc21EthereumJsonRpcClientE20verify_blocks_stored0Bb_
FNDA:6,_RNCNvMs2_NtNtCscwo6F0TH2eV_17fossil_headers_db7indexer13batch_serviceINtB7_12BatchIndexerNtNtBb_3rpc21EthereumJsonRpcClientE21get_total_block_count0Bb_
FNDA:6,_RNCNvMs2_NtNtCscwo6F0TH2eV_17fossil_headers_db7indexer13batch_serviceINtB7_12BatchIndexerNtNtBb_3rpc21EthereumJsonRpcClientE23get_latest_block_number0Bb_
FNDA:3,_RNCNvMs2_NtNtCscwo6F0TH2eV_17fossil_headers_db7indexer13batch_serviceINtB7_12BatchIndexerNtNtBb_3rpc21EthereumJsonRpcClientE23save_blocks_to_database0Bb_
FNDA:15,_RNCNvMs2_NtNtCscwo6F0TH2eV_17fossil_headers_db7indexer13batch_serviceINtB7_12BatchIndexerNtNtBb_3rpc21EthereumJsonRpcClientE24create_block_fetch_tasks0Bb_
FNDA:3,_RNCNvMs2_NtNtCscwo6F0TH2eV_17fossil_headers_db7indexer13batch_serviceINtB7_12BatchIndexerNtNtBb_3rpc21EthereumJsonRpcClientE28apply_backpressure_if_needed0Bb_
FNDA:3,_RNCNvMs2_NtNtCscwo6F0TH2eV_17fossil_headers_db7indexer13batch_serviceINtB7_12BatchIndexerNtNtBb_3rpc21EthereumJsonRpcClientE5index0Bb_
FNDA:3,_RNvMs2_NtNtCscwo6F0TH2eV_17fossil_headers_db7indexer13batch_serviceINtB5_12BatchIndexerNtNtB9_3rpc21EthereumJsonRpcClientE17index_block_rangeB9_
FNDA:0,_RNvMs2_NtNtCscwo6F0TH2eV_17fossil_headers_db7indexer13batch_serviceINtB5_12BatchIndexerNtNtB9_3rpc21EthereumJsonRpcClientE19apply_retry_backoffB9_
FNDA:3,_RNvMs2_NtNtCscwo6F0TH2eV_17fossil_headers_db7indexer13batch_serviceINtB5_12BatchIndexerNtNtB9_3rpc21EthereumJsonRpcClientE19fetch_block_headersB9_
FNDA:6,_RNvMs2_NtNtCscwo6F0TH2eV_17fossil_headers_db7indexer13batch_serviceINtB5_12BatchIndexerNtNtB9_3rpc21EthereumJsonRpcClientE20get_current_metadataB9_
FNDA:3,_RNvMs2_NtNtCscwo6F0TH2eV_17fossil_headers_db7indexer13batch_serviceINtB5_12BatchIndexerNtNtB9_3rpc21EthereumJsonRpcClientE20verify_blocks_storedB9_
FNDA:3,_RNvMs2_NtNtCscwo6F0TH2eV_17fossil_headers_db7indexer13batch_serviceINtB5_12BatchIndexerNtNtB9_3rpc21EthereumJsonRpcClientE21calculate_block_rangeB9_
FNDA:6,_RNvMs2_NtNtCscwo6F0TH2eV_17fossil_headers_db7indexer13batch_serviceINtB5_12BatchIndexerNtNtB9_3rpc21EthereumJsonRpcClientE21get_total_block_countB9_
FNDA:6,_RNvMs2_NtNtCscwo6F0TH2eV_17fossil_headers_db7indexer13batch_serviceINtB5_12BatchIndexerNtNtB9_3rpc21EthereumJsonRpcClientE23get_latest_block_numberB9_
FNDA:6,_RNvMs2_NtNtCscwo6F0TH2eV_17fossil_headers_db7indexer13batch_serviceINtB5_12BatchIndexerNtNtB9_3rpc21EthereumJsonRpcClientE23is_backfilling_completeB9_
FNDA:3,_RNvMs2_NtNtCscwo6F0TH2eV_17fossil_headers_db7indexer13batch_serviceINtB5_12BatchIndexerNtNtB9_3rpc21EthereumJsonRpcClientE23process_block_responsesB9_
FNDA:3,_RNvMs2_NtNtCscwo6F0TH2eV_17fossil_headers_db7indexer13batch_serviceINtB5_12BatchIndexerNtNtB9_3rpc21EthereumJsonRpcClientE23save_blocks_to_databaseB9_
FNDA:3,_RNvMs2_NtNtCscwo6F0TH2eV_17fossil_headers_db7indexer13batch_serviceINtB5_12BatchIndexerNtNtB9_3rpc21EthereumJsonRpcClientE24create_block_fetch_tasksB9_
FNDA:3,_RNvMs2_NtNtCscwo6F0TH2eV_17fossil_headers_db7indexer13batch_serviceINtB5_12BatchIndexerNtNtB9_3rpc21EthereumJsonRpcClientE28apply_backpressure_if_neededB9_
FNDA:3,_RNvMs2_NtNtCscwo6F0TH2eV_17fossil_headers_db7indexer13batch_serviceINtB5_12BatchIndexerNtNtB9_3rpc21EthereumJsonRpcClientE3newB9_
FNDA:3,_RNvMs2_NtNtCscwo6F0TH2eV_17fossil_headers_db7indexer13batch_serviceINtB5_12BatchIndexerNtNtB9_3rpc21EthereumJsonRpcClientE5indexB9_
FNDA:3,_RNvMNtNtCscwo6F0TH2eV_17fossil_headers_db7indexer13batch_serviceNtB2_16BatchIndexConfig7builder
FNDA:3,_RNvMs0_NtNtCscwo6F0TH2eV_17fossil_headers_db7indexer13batch_serviceNtB5_23BatchIndexConfigBuilder11max_retries
FNDA:3,_RNvMs0_NtNtCscwo6F0TH2eV_17fossil_headers_db7indexer13batch_serviceNtB5_23BatchIndexConfigBuilder11rpc_timeout
FNDA:0,_RNvMs0_NtNtCscwo6F0TH2eV_17fossil_headers_db7indexer13batch_serviceNtB5_23BatchIndexConfigBuilder12conservative
FNDA:3,_RNvMs0_NtNtCscwo6F0TH2eV_17fossil_headers_db7indexer13batch_serviceNtB5_23BatchIndexConfigBuilder12task_timeout
FNDA:3,_RNvMs0_NtNtCscwo6F0TH2eV_17fossil_headers_db7indexer13batch_serviceNtB5_23BatchIndexConfigBuilder13poll_interval
FNDA:0,_RNvMs0_NtNtCscwo6F0TH2eV_17fossil_headers_db7indexer13batch_serviceNtB5_23BatchIndexConfigBuilder15high_throughput
FNDA:3,_RNvMs0_NtNtCscwo6F0TH2eV_17fossil_headers_db7indexer13batch_serviceNtB5_23BatchIndexConfigBuilder16index_batch_size
FNDA:3,_RNvMs0_NtNtCscwo6F0TH2eV_17fossil_headers_db7indexer13batch_serviceNtB5_23BatchIndexConfigBuilder16should_index_txs
FNDA:3,_RNvMs0_NtNtCscwo6F0TH2eV_17fossil_headers_db7indexer13batch_serviceNtB5_23BatchIndexConfigBuilder23max_concurrent_requests
FNDA:3,_RNvMs0_NtNtCscwo6F0TH2eV_17fossil_headers_db7indexer13batch_serviceNtB5_23BatchIndexConfigBuilder3new
FNDA:3,_RNvMs0_NtNtCscwo6F0TH2eV_17fossil_headers_db7indexer13batch_serviceNtB5_23BatchIndexConfigBuilder5build
FNDA:0,_RNvMs0_NtNtCscwo6F0TH2eV_17fossil_headers_db7indexer13batch_serviceNtB5_23BatchIndexConfigBuilder7testing
FNDA:0,_RNvXs1_NtNtCscwo6F0TH2eV_17fossil_headers_db7indexer13batch_serviceNtB5_23BatchIndexConfigBuilderNtNtCs66KPHxksi63_4core7default7Default7default
FNDA:0,_RNvXs_NtNtCscwo6F0TH2eV_17fossil_headers_db7indexer13batch_serviceNtB4_16BatchIndexConfigNtNtCs66KPHxksi63_4core7default7Default7default
FNDA:0,_RNvMNtNtCs5Xp1JEPGtUd_17fossil_headers_db7indexer13batch_serviceNtB2_16BatchIndexConfig7builder
FNDA:0,_RNvMs0_NtNtCs5Xp1JEPGtUd_17fossil_headers_db7indexer13batch_serviceNtB5_23BatchIndexConfigBuilder11max_retries
FNDA:0,_RNvMs0_NtNtCs5Xp1JEPGtUd_17fossil_headers_db7indexer13batch_serviceNtB5_23BatchIndexConfigBuilder11rpc_timeout
FNDA:0,_RNvMs0_NtNtCs5Xp1JEPGtUd_17fossil_headers_db7indexer13batch_serviceNtB5_23BatchIndexConfigBuilder12conservative
FNDA:0,_RNvMs0_NtNtCs5Xp1JEPGtUd_17fossil_headers_db7indexer13batch_serviceNtB5_23BatchIndexConfigBuilder12task_timeout
FNDA:0,_RNvMs0_NtNtCs5Xp1JEPGtUd_17fossil_headers_db7indexer13batch_serviceNtB5_23BatchIndexConfigBuilder13poll_interval
FNDA:0,_RNvMs0_NtNtCs5Xp1JEPGtUd_17fossil_headers_db7indexer13batch_serviceNtB5_23BatchIndexConfigBuilder15high_throughput
FNDA:0,_RNvMs0_NtNtCs5Xp1JEPGtUd_17fossil_headers_db7indexer13batch_serviceNtB5_23BatchIndexConfigBuilder16index_batch_size
FNDA:0,_RNvMs0_NtNtCs5Xp1JEPGtUd_17fossil_headers_db7indexer13batch_serviceNtB5_23BatchIndexConfigBuilder16should_index_txs
FNDA:0,_RNvMs0_NtNtCs5Xp1JEPGtUd_17fossil_headers_db7indexer13batch_serviceNtB5_23BatchIndexConfigBuilder23max_concurrent_requests
FNDA:0,_RNvMs0_NtNtCs5Xp1JEPGtUd_17fossil_headers_db7indexer13batch_serviceNtB5_23BatchIndexConfigBuilder3new
FNDA:0,_RNvMs0_NtNtCs5Xp1JEPGtUd_17fossil_headers_db7indexer13batch_serviceNtB5_23BatchIndexConfigBuilder5build
FNDA:0,_RNvMs0_NtNtCs5Xp1JEPGtUd_17fossil_headers_db7indexer13batch_serviceNtB5_23BatchIndexConfigBuilder7testing
FNDA:0,_RNvXs1_NtNtCs5Xp1JEPGtUd_17fossil_headers_db7indexer13batch_serviceNtB5_23BatchIndexConfigBuilderNtNtCs66KPHxksi63_4core7default7Default7default
FNDA:6,_RNvXs_NtNtCs5Xp1JEPGtUd_17fossil_headers_db7indexer13batch_serviceNtB4_16BatchIndexConfigNtNtCs66KPHxksi63_4core7default7Default7default
FNDA:0,_RNCNCNCNvMs2_NtNtCs5Xp1JEPGtUd_17fossil_headers_db7indexer13batch_serviceINtBb_12BatchIndexerNtNtBd_10test_utils15MockRpcProviderE24create_block_fetch_tasks000Bf_
FNDA:22,_RNCNCNCNvMs2_NtNtCs5Xp1JEPGtUd_17fossil_headers_db7indexer13batch_serviceINtBb_12BatchIndexerNtNtBd_10test_utils15MockRpcProviderE24create_block_fetch_tasks00s0_0Bf_
FNDA:0,_RNCNCNCNvMs2_NtNtCs5Xp1JEPGtUd_17fossil_headers_db7indexer13batch_serviceINtBb_12BatchIndexerNtNtBd_10test_utils15MockRpcProviderE24create_block_fetch_tasks00s_0Bf_
FNDA:0,_RNCNCNvMs2_NtNtCs5Xp1JEPGtUd_17fossil_headers_db7indexer13batch_serviceINtB9_12BatchIndexerNtNtBb_10test_utils15MockRpcProviderE20verify_blocks_stored00Bd_
FNDA:0,_RNCNCNvMs2_NtNtCs5Xp1JEPGtUd_17fossil_headers_db7indexer13batch_serviceINtB9_12BatchIndexerNtNtBb_10test_utils15MockRpcProviderE23save_blocks_to_database00Bd_
FNDA:0,_RNCNCNvMs2_NtNtCs5Xp1JEPGtUd_17fossil_headers_db7indexer13batch_serviceINtB9_12BatchIndexerNtNtBb_10test_utils15MockRpcProviderE23save_blocks_to_database0s0_0Bd_
FNDA:0,_RNCNCNvMs2_NtNtCs5Xp1JEPGtUd_17fossil_headers_db7indexer13batch_serviceINtB9_12BatchIndexerNtNtBb_10test_utils15MockRpcProviderE23save_blocks_to_database0s1_0Bd_
FNDA:26,_RNCNCNvMs2_NtNtCs5Xp1JEPGtUd_17fossil_headers_db7indexer13batch_serviceINtB9_12BatchIndexerNtNtBb_10test_utils15MockRpcProviderE23save_blocks_to_database0s_0Bd_
FNDA:38,_RNCNCNvMs2_NtNtCs5Xp1JEPGtUd_17fossil_headers_db7indexer13batch_serviceINtB9_12BatchIndexerNtNtBb_10test_utils15MockRpcProviderE24create_block_fetch_tasks00Bd_
FNDA:4,_RNCNvMs2_NtNtCs5Xp1JEPGtUd_17fossil_headers_db7indexer13batch_serviceINtB7_12BatchIndexerNtNtB9_10test_utils15MockRpcProviderE17index_block_range0Bb_
FNDA:2,_RNCNvMs2_NtNtCs5Xp1JEPGtUd_17fossil_headers_db7indexer13batch_serviceINtB7_12BatchIndexerNtNtB9_10test_utils15MockRpcProviderE19apply_retry_backoff0Bb_
FNDA:5,_RNCNvMs2_NtNtCs5Xp1JEPGtUd_17fossil_headers_db7indexer13batch_serviceINtB7_12BatchIndexerNtNtB9_10test_utils15MockRpcProviderE19fetch_block_headers0Bb_
FNDA:8,_RNCNvMs2_NtNtCs5Xp1JEPGtUd_17fossil_headers_db7indexer13batch_serviceINtB7_12BatchIndexerNtNtB9_10test_utils15MockRpcProviderE20get_current_metadata0Bb_
FNDA:3,_RNCNvMs2_NtNtCs5Xp1JEPGtUd_17fossil_headers_db7indexer13batch_serviceINtB7_12BatchIndexerNtNtB9_10test_utils15MockRpcProviderE20verify_blocks_stored0Bb_
FNDA:6,_RNCNvMs2_NtNtCs5Xp1JEPGtUd_17fossil_headers_db7indexer13batch_serviceINtB7_12BatchIndexerNtNtB9_10test_utils15MockRpcProviderE21get_total_block_count0Bb_
FNDA:6,_RNCNvMs2_NtNtCs5Xp1JEPGtUd_17fossil_headers_db7indexer13batch_serviceINtB7_12BatchIndexerNtNtB9_10test_utils15MockRpcProviderE23get_latest_block_number0Bb_
FNDA:3,_RNCNvMs2_NtNtCs5Xp1JEPGtUd_17fossil_headers_db7indexer13batch_serviceINtB7_12BatchIndexerNtNtB9_10test_utils15MockRpcProviderE23save_blocks_to_database0Bb_
FNDA:38,_RNCNvMs2_NtNtCs5Xp1JEPGtUd_17fossil_headers_db7indexer13batch_serviceINtB7_12BatchIndexerNtNtB9_10test_utils15MockRpcProviderE24create_block_fetch_tasks0Bb_
FNDA:5,_RNCNvMs2_NtNtCs5Xp1JEPGtUd_17fossil_headers_db7indexer13batch_serviceINtB7_12BatchIndexerNtNtB9_10test_utils15MockRpcProviderE28apply_backpressure_if_needed0Bb_
FNDA:5,_RNCNvMs2_NtNtCs5Xp1JEPGtUd_17fossil_headers_db7indexer13batch_serviceINtB7_12BatchIndexerNtNtB9_10test_utils15MockRpcProviderE5index0Bb_
FNDA:4,_RNvMs2_NtNtCs5Xp1JEPGtUd_17fossil_headers_db7indexer13batch_serviceINtB5_12BatchIndexerNtNtB7_10test_utils15MockRpcProviderE17index_block_rangeB9_
FNDA:2,_RNvMs2_NtNtCs5Xp1JEPGtUd_17fossil_headers_db7indexer13batch_serviceINtB5_12BatchIndexerNtNtB7_10test_utils15MockRpcProviderE19apply_retry_backoffB9_
FNDA:5,_RNvMs2_NtNtCs5Xp1JEPGtUd_17fossil_headers_db7indexer13batch_serviceINtB5_12BatchIndexerNtNtB7_10test_utils15MockRpcProviderE19fetch_block_headersB9_
FNDA:8,_RNvMs2_NtNtCs5Xp1JEPGtUd_17fossil_headers_db7indexer13batch_serviceINtB5_12BatchIndexerNtNtB7_10test_utils15MockRpcProviderE20get_current_metadataB9_
FNDA:3,_RNvMs2_NtNtCs5Xp1JEPGtUd_17fossil_headers_db7indexer13batch_serviceINtB5_12BatchIndexerNtNtB7_10test_utils15MockRpcProviderE20verify_blocks_storedB9_
FNDA:4,_RNvMs2_NtNtCs5Xp1JEPGtUd_17fossil_headers_db7indexer13batch_serviceINtB5_12BatchIndexerNtNtB7_10test_utils15MockRpcProviderE21calculate_block_rangeB9_
FNDA:6,_RNvMs2_NtNtCs5Xp1JEPGtUd_17fossil_headers_db7indexer13batch_serviceINtB5_12BatchIndexerNtNtB7_10test_utils15MockRpcProviderE21get_total_block_countB9_
FNDA:6,_RNvMs2_NtNtCs5Xp1JEPGtUd_17fossil_headers_db7indexer13batch_serviceINtB5_12BatchIndexerNtNtB7_10test_utils15MockRpcProviderE23get_latest_block_numberB9_
FNDA:7,_RNvMs2_NtNtCs5Xp1JEPGtUd_17fossil_headers_db7indexer13batch_serviceINtB5_12BatchIndexerNtNtB7_10test_utils15MockRpcProviderE23is_backfilling_completeB9_
FNDA:5,_RNvMs2_NtNtCs5Xp1JEPGtUd_17fossil_headers_db7indexer13batch_serviceINtB5_12BatchIndexerNtNtB7_10test_utils15MockRpcProviderE23process_block_responsesB9_
FNDA:3,_RNvMs2_NtNtCs5Xp1JEPGtUd_17fossil_headers_db7indexer13batch_serviceINtB5_12BatchIndexerNtNtB7_10test_utils15MockRpcProviderE23save_blocks_to_databaseB9_
FNDA:5,_RNvMs2_NtNtCs5Xp1JEPGtUd_17fossil_headers_db7indexer13batch_serviceINtB5_12BatchIndexerNtNtB7_10test_utils15MockRpcProviderE24create_block_fetch_tasksB9_
FNDA:5,_RNvMs2_NtNtCs5Xp1JEPGtUd_17fossil_headers_db7indexer13batch_serviceINtB5_12BatchIndexerNtNtB7_10test_utils15MockRpcProviderE28apply_backpressure_if_neededB9_
FNDA:6,_RNvMs2_NtNtCs5Xp1JEPGtUd_17fossil_headers_db7indexer13batch_serviceINtB5_12BatchIndexerNtNtB7_10test_utils15MockRpcProviderE3newB9_
FNDA:5,_RNvMs2_NtNtCs5Xp1JEPGtUd_17fossil_headers_db7indexer13batch_serviceINtB5_12BatchIndexerNtNtB7_10test_utils15MockRpcProviderE5indexB9_
FNDA:3,_RNvNtNtNtCs5Xp1JEPGtUd_17fossil_headers_db7indexer13batch_service5tests22get_fixtures_for_tests
FNDA:1,_RNCNCINvNCNvNtNtNtCs5Xp1JEPGtUd_17fossil_headers_db7indexer13batch_service5testss_24test_batch_index_with_tx024test_batch_index_with_txNtNtCs3fCLpenLmI3_13sqlx_postgres7options16PgConnectOptionsE00Bg_
FNDA:1,_RNCNCINvNCNvNtNtNtCs5Xp1JEPGtUd_17fossil_headers_db7indexer13batch_service5testss_37test_batch_index_default_headers_only037test_batch_index_default_headers_onlyNtNtCs3fCLpenLmI3_13sqlx_postgres7options16PgConnectOptionsE00Bg_
FNDA:1,_RNCNCINvNCNvNtNtNtCs5Xp1JEPGtUd_17fossil_headers_db7indexer13batch_service5testss_66test_quick_index_always_index_away_from_latest_blocknumber_with_tx066test_quick_index_always_index_away_from_latest_blocknumber_with_txNtNtCs3fCLpenLmI3_13sqlx_postgres7options16PgConnectOptionsE00Bg_
FNDA:3,_RNCNvNtNtNtCs5Xp1JEPGtUd_17fossil_headers_db7indexer13batch_service5tests22get_fixtures_for_tests0B9_
FNF:55
FNH:45
DA:42,3
DA:43,3
DA:44,3
DA:48,6
DA:49,6
DA:50,6
DA:51,6
DA:52,6
DA:53,6
DA:54,6
DA:55,6
DA:56,6
DA:57,6
DA:58,6
DA:73,3
DA:74,3
DA:75,3
DA:76,3
DA:77,3
DA:78,3
DA:79,3
DA:80,3
DA:81,3
DA:82,3
DA:83,3
DA:86,0
DA:87,0
DA:88,0
DA:89,0
DA:90,0
DA:91,0
DA:92,0
DA:95,0
DA:96,0
DA:97,0
DA:98,0
DA:99,0
DA:100,0
DA:101,0
DA:104,0
DA:105,0
DA:106,0
DA:107,0
DA:108,0
DA:109,0
DA:110,0
DA:113,3
DA:114,3
DA:115,3
DA:116,3
DA:119,3
DA:120,3
DA:121,3
DA:122,3
DA:125,3
DA:126,3
DA:127,3
DA:128,3
DA:131,3
DA:132,3
DA:133,3
DA:134,3
DA:137,3
DA:138,3
DA:139,3
DA:140,3
DA:143,3
DA:144,3
DA:145,3
DA:146,3
DA:149,3
DA:150,3
DA:151,3
DA:152,3
DA:154,3
DA:155,3
DA:156,0
DA:157,0
DA:158,0
DA:159,0
DA:160,3
DA:162,3
DA:163,0
DA:164,0
DA:165,0
DA:166,0
DA:167,3
DA:169,3
DA:170,0
DA:171,0
DA:172,0
DA:173,0
DA:174,3
DA:176,3
DA:177,0
DA:178,0
DA:179,0
DA:180,0
DA:181,3
DA:183,3
DA:184,0
DA:185,0
DA:186,0
DA:187,0
DA:188,3
DA:190,3
DA:191,0
DA:192,0
DA:193,0
DA:194,0
DA:195,3
DA:197,3
DA:198,3
DA:199,3
DA:200,3
DA:201,3
DA:202,3
DA:203,3
DA:204,3
DA:205,3
DA:206,3
DA:210,0
DA:211,0
DA:212,0
DA:226,9
DA:227,9
DA:228,9
DA:229,9
DA:230,9
DA:231,9
DA:232,9
DA:233,9
DA:234,9
DA:235,9
DA:236,9
DA:237,9
DA:238,9
DA:242,8
DA:248,14
DA:249,14
DA:251,13
DA:252,13
DA:253,13
DA:254,13
DA:256,13
DA:257,13
DA:258,13
DA:260,6
DA:261,7
DA:263,7
DA:264,7
DA:266,7
DA:267,7
DA:269,6
DA:270,8
DA:272,14
DA:273,14
DA:274,14
DA:275,14
DA:276,13
DA:278,1
DA:279,1
DA:281,0
DA:282,0
DA:283,0
DA:286,14
DA:288,12
DA:289,12
DA:290,12
DA:291,12
DA:292,12
DA:293,12
DA:295,12
DA:296,12
DA:297,12
DA:298,12
DA:299,12
DA:300,12
DA:302,13
DA:303,13
DA:304,13
DA:305,13
DA:306,13
DA:307,6
DA:308,6
DA:309,7
DA:310,7
DA:311,13
DA:313,7
DA:314,7
DA:315,7
DA:316,7
DA:317,7
DA:318,7
DA:319,7
DA:320,7
DA:321,7
DA:323,0
DA:325,7
DA:326,7
DA:330,7
DA:331,7
DA:332,7
DA:333,7
DA:334,7
DA:335,7
DA:336,7
DA:337,7
DA:339,8
DA:340,8
DA:341,0
DA:342,0
DA:343,8
DA:345,8
DA:346,8
DA:348,8
DA:349,8
DA:350,8
DA:351,8
DA:352,8
DA:353,8
DA:354,8
DA:355,8
DA:357,8
DA:358,6
DA:359,6
DA:362,6
DA:363,6
DA:364,6
DA:366,0
DA:367,0
DA:370,0
DA:371,6
DA:373,6
DA:374,6
DA:375,6
DA:376,0
DA:379,6
DA:380,2
DA:383,2
DA:385,2
DA:388,1
DA:389,7
DA:391,8
DA:392,8
DA:393,8
DA:394,8
DA:395,8
DA:396,8
DA:397,8
DA:399,8
DA:400,8
DA:401,8
DA:402,8
DA:403,8
DA:405,8
DA:406,8
DA:407,8
DA:408,8
DA:409,8
DA:410,8
DA:411,8
DA:412,8
DA:414,8
DA:415,8
DA:416,53
DA:417,53
DA:418,53
DA:420,53
DA:421,53
DA:422,53
DA:423,53
DA:424,53
DA:427,53
DA:428,53
DA:429,53
DA:430,53
DA:431,53
DA:432,53
DA:433,53
DA:434,53
DA:435,53
DA:436,53
DA:437,53
DA:438,53
DA:439,53
DA:440,8
DA:441,8
DA:444,8
DA:445,8
DA:446,8
DA:447,8
DA:448,8
DA:449,8
DA:450,8
DA:451,8
DA:452,8
DA:454,53
DA:455,53
DA:456,53
DA:457,31
DA:459,31
DA:460,31
DA:461,31
DA:462,31
DA:463,0
DA:464,0
DA:465,0
DA:466,0
DA:467,0
DA:471,0
DA:472,0
DA:473,0
DA:474,0
DA:475,0
DA:476,0
DA:481,22
DA:482,22
DA:483,22
DA:484,22
DA:485,0
DA:489,0
DA:490,0
DA:491,0
DA:492,0
DA:493,0
DA:502,8
DA:503,0
DA:504,0
DA:505,0
DA:508,8
DA:510,8
DA:511,8
DA:514,8
DA:515,8
DA:516,8
DA:517,8
DA:518,8
DA:519,8
DA:520,8
DA:521,8
DA:522,8
DA:523,8
DA:524,2
DA:525,0
DA:526,0
DA:533,2
DA:534,2
DA:535,6
DA:536,8
DA:538,6
DA:539,6
DA:540,6
DA:541,6
DA:542,6
DA:543,6
DA:545,6
DA:546,0
DA:547,0
DA:551,0
DA:552,6
DA:553,0
DA:554,6
DA:557,6
DA:558,50
DA:561,31
DA:562,31
DA:563,31
DA:564,0
DA:565,0
DA:567,31
DA:568,0
DA:569,31
DA:573,6
DA:575,6
DA:576,3
DA:578,3
DA:581,6
DA:583,6
DA:584,6
DA:585,0
DA:588,6
DA:589,0
DA:590,0
DA:591,0
DA:593,6
DA:594,6
DA:595,6
DA:596,0
DA:599,6
DA:600,6
DA:602,2
DA:603,2
DA:604,2
DA:605,2
DA:607,6
DA:608,6
DA:609,0
DA:610,0
DA:614,0
DA:616,6
DA:617,6
DA:618,6
DA:619,6
DA:620,6
DA:621,6
DA:623,6
DA:624,0
DA:625,6
DA:628,6
DA:629,6
DA:630,6
DA:631,6
DA:632,6
DA:633,6
DA:634,6
DA:635,6
DA:636,6
DA:637,6
DA:638,6
DA:639,6
DA:640,6
DA:641,6
DA:642,6
DA:643,6
DA:644,6
DA:645,6
DA:646,6
DA:648,6
DA:649,0
DA:650,0
DA:651,0
DA:652,0
DA:653,0
DA:654,0
DA:655,6
DA:657,6
DA:658,6
DA:677,3
DA:678,3
DA:680,21
DA:681,18
DA:682,18
DA:683,18
DA:684,18
DA:685,18
DA:687,18
DA:688,18
DA:691,3
DA:692,3
DA:762,1
DA:763,1
DA:764,1
DA:854,1
DA:855,1
DA:856,1
DA:961,1
DA:962,1
DA:963,1
BRF:0
BRH:0
LF:484
LH:372
end_of_record
SF:/home/ametel/source/fossil-headers-db/src/indexer/lib.rs
FN:157,_RNCNvMs_NtNtCscwo6F0TH2eV_17fossil_headers_db7indexer3libNtB6_21IndexingConfigBuilder5build0Ba_
FN:164,_RNCNvMs_NtNtCscwo6F0TH2eV_17fossil_headers_db7indexer3libNtB6_21IndexingConfigBuilder5builds_0Ba_
FN:270,_RNCNvNtNtCscwo6F0TH2eV_17fossil_headers_db7indexer3lib20spawn_router_service0B7_
FN:346,_RNCNvNtNtCscwo6F0TH2eV_17fossil_headers_db7indexer3lib27spawn_batch_indexer_service0B7_
FN:307,_RNCNvNtNtCscwo6F0TH2eV_17fossil_headers_db7indexer3lib27spawn_quick_indexer_service0B7_
FN:103,_RINvMs_NtNtCscwo6F0TH2eV_17fossil_headers_db7indexer3libNtB5_21IndexingConfigBuilder14db_conn_stringpEB9_
FN:109,_RINvMs_NtNtCscwo6F0TH2eV_17fossil_headers_db7indexer3libNtB5_21IndexingConfigBuilder16node_conn_stringpEB9_
FN:260,_RNCNCNvNtNtCscwo6F0TH2eV_17fossil_headers_db7indexer3lib22setup_database_and_rpc00B9_
FN:405,_RNCNCNvNtNtCscwo6F0TH2eV_17fossil_headers_db7indexer3lib25initialize_index_metadata00B9_
FN:429,_RNCNCNvNtNtCscwo6F0TH2eV_17fossil_headers_db7indexer3lib25initialize_index_metadata0s0_0B9_
FN:437,_RNCNCNvNtNtCscwo6F0TH2eV_17fossil_headers_db7indexer3lib25initialize_index_metadata0s1_0B9_
FN:443,_RNCNCNvNtNtCscwo6F0TH2eV_17fossil_headers_db7indexer3lib25initialize_index_metadata0s2_0B9_
FN:413,_RNCNCNvNtNtCscwo6F0TH2eV_17fossil_headers_db7indexer3lib25initialize_index_metadata0s_0B9_
FN:586,_RNCNCNvNtNtCscwo6F0TH2eV_17fossil_headers_db7indexer3lib36setup_backfill_for_existing_database00B9_
FN:600,_RNCNCNvNtNtCscwo6F0TH2eV_17fossil_headers_db7indexer3lib36setup_backfill_for_existing_database0s0_0B9_
FN:609,_RNCNCNvNtNtCscwo6F0TH2eV_17fossil_headers_db7indexer3lib36setup_backfill_for_existing_database0s1_0B9_
FN:622,_RNCNCNvNtNtCscwo6F0TH2eV_17fossil_headers_db7indexer3lib36setup_backfill_for_existing_database0s2_0B9_
FN:627,_RNCNCNvNtNtCscwo6F0TH2eV_17fossil_headers_db7indexer3lib36setup_backfill_for_existing_database0s3_0B9_
FN:596,_RNCNCNvNtNtCscwo6F0TH2eV_17fossil_headers_db7indexer3lib36setup_backfill_for_existing_database0s_0B9_
FN:250,_RNCNvNtNtCscwo6F0TH2eV_17fossil_headers_db7indexer3lib22setup_database_and_rpc0B7_
FN:219,_RNCNvNtNtCscwo6F0TH2eV_17fossil_headers_db7indexer3lib23start_indexing_services0B7_
FN:371,_RNCNvNtNtCscwo6F0TH2eV_17fossil_headers_db7indexer3lib25initialize_index_metadata0B7_
FN:456,_RNCNvNtNtCscwo6F0TH2eV_17fossil_headers_db7indexer3lib26wait_for_thread_completion0B7_
FN:583,_RNCNvNtNtCscwo6F0TH2eV_17fossil_headers_db7indexer3lib36setup_backfill_for_existing_database0B7_
FN:531,_RNCNvNtNtCscwo6F0TH2eV_17fossil_headers_db7indexer3lib37should_setup_backfill_for_existing_db0B7_
FN:39,_RNvMNtNtCscwo6F0TH2eV_17fossil_headers_db7indexer3libNtB2_14IndexingConfig7builder
FN:93,_RNvMs_NtNtCscwo6F0TH2eV_17fossil_headers_db7indexer3libNtB4_21IndexingConfigBuilder10production
FN:73,_RNvMs_NtNtCscwo6F0TH2eV_17fossil_headers_db7indexer3libNtB4_21IndexingConfigBuilder11development
FN:121,_RNvMs_NtNtCscwo6F0TH2eV_17fossil_headers_db7indexer3libNtB4_21IndexingConfigBuilder11max_retries
FN:133,_RNvMs_NtNtCscwo6F0TH2eV_17fossil_headers_db7indexer3libNtB4_21IndexingConfigBuilder11rpc_timeout
FN:127,_RNvMs_NtNtCscwo6F0TH2eV_17fossil_headers_db7indexer3libNtB4_21IndexingConfigBuilder13poll_interval
FN:139,_RNvMs_NtNtCscwo6F0TH2eV_17fossil_headers_db7indexer3libNtB4_21IndexingConfigBuilder15rpc_max_retries
FN:145,_RNvMs_NtNtCscwo6F0TH2eV_17fossil_headers_db7indexer3libNtB4_21IndexingConfigBuilder16index_batch_size
FN:115,_RNvMs_NtNtCscwo6F0TH2eV_17fossil_headers_db7indexer3libNtB4_21IndexingConfigBuilder16should_index_txs
FN:151,_RNvMs_NtNtCscwo6F0TH2eV_17fossil_headers_db7indexer3libNtB4_21IndexingConfigBuilder18start_block_offset
FN:58,_RNvMs_NtNtCscwo6F0TH2eV_17fossil_headers_db7indexer3libNtB4_21IndexingConfigBuilder3new
FN:156,_RNvMs_NtNtCscwo6F0TH2eV_17fossil_headers_db7indexer3libNtB4_21IndexingConfigBuilder5build
FN:83,_RNvMs_NtNtCscwo6F0TH2eV_17fossil_headers_db7indexer3libNtB4_21IndexingConfigBuilder7testing
FN:509,_RNvNtNtCscwo6F0TH2eV_17fossil_headers_db7indexer3lib20format_error_details
FN:269,_RNvNtNtCscwo6F0TH2eV_17fossil_headers_db7indexer3lib20spawn_router_service
FN:248,_RNvNtNtCscwo6F0TH2eV_17fossil_headers_db7indexer3lib22setup_database_and_rpc
FN:216,_RNvNtNtCscwo6F0TH2eV_17fossil_headers_db7indexer3lib23start_indexing_services
FN:367,_RNvNtNtCscwo6F0TH2eV_17fossil_headers_db7indexer3lib25initialize_index_metadata
FN:456,_RNvNtNtCscwo6F0TH2eV_17fossil_headers_db7indexer3lib26wait_for_thread_completion
FN:328,_RNvNtNtCscwo6F0TH2eV_17fossil_headers_db7indexer3lib27spawn_batch_indexer_service
FN:291,_RNvNtNtCscwo6F0TH2eV_17fossil_headers_db7indexer3lib27spawn_quick_indexer_service
FN:578,_RNvNtNtCscwo6F0TH2eV_17fossil_headers_db7indexer3lib36setup_backfill_for_existing_database
FN:526,_RNvNtNtCscwo6F0TH2eV_17fossil_headers_db7indexer3lib37should_setup_backfill_for_existing_db
FN:211,_RNvXs0_NtNtCscwo6F0TH2eV_17fossil_headers_db7indexer3libNtB5_21IndexingConfigBuilderNtNtCs66KPHxksi63_4core7default7Default7default
FN:103,_RINvMs_NtNtCs5Xp1JEPGtUd_17fossil_headers_db7indexer3libNtB5_21IndexingConfigBuilder14db_conn_stringpEB9_
FN:109,_RINvMs_NtNtCs5Xp1JEPGtUd_17fossil_headers_db7indexer3libNtB5_21IndexingConfigBuilder16node_conn_stringpEB9_
FN:260,_RNCNCNvNtNtCs5Xp1JEPGtUd_17fossil_headers_db7indexer3lib22setup_database_and_rpc00B9_
FN:405,_RNCNCNvNtNtCs5Xp1JEPGtUd_17fossil_headers_db7indexer3lib25initialize_index_metadata00B9_
FN:429,_RNCNCNvNtNtCs5Xp1JEPGtUd_17fossil_headers_db7indexer3lib25initialize_index_metadata0s0_0B9_
FN:437,_RNCNCNvNtNtCs5Xp1JEPGtUd_17fossil_headers_db7indexer3lib25initialize_index_metadata0s1_0B9_
FN:443,_RNCNCNvNtNtCs5Xp1JEPGtUd_17fossil_headers_db7indexer3lib25initialize_index_metadata0s2_0B9_
FN:413,_RNCNCNvNtNtCs5Xp1JEPGtUd_17fossil_headers_db7indexer3lib25initialize_index_metadata0s_0B9_
FN:586,_RNCNCNvNtNtCs5Xp1JEPGtUd_17fossil_headers_db7indexer3lib36setup_backfill_for_existing_database00B9_
FN:600,_RNCNCNvNtNtCs5Xp1JEPGtUd_17fossil_headers_db7indexer3lib36setup_backfill_for_existing_database0s0_0B9_
FN:609,_RNCNCNvNtNtCs5Xp1JEPGtUd_17fossil_headers_db7indexer3lib36setup_backfill_for_existing_database0s1_0B9_
FN:622,_RNCNCNvNtNtCs5Xp1JEPGtUd_17fossil_headers_db7indexer3lib36setup_backfill_for_existing_database0s2_0B9_
FN:627,_RNCNCNvNtNtCs5Xp1JEPGtUd_17fossil_headers_db7indexer3lib36setup_backfill_for_existing_database0s3_0B9_
FN:596,_RNCNCNvNtNtCs5Xp1JEPGtUd_17fossil_headers_db7indexer3lib36setup_backfill_for_existing_database0s_0B9_
FN:157,_RNCNvMs_NtNtCs5Xp1JEPGtUd_17fossil_headers_db7indexer3libNtB6_21IndexingConfigBuilder5build0Ba_
FN:164,_RNCNvMs_NtNtCs5Xp1JEPGtUd_17fossil_headers_db7indexer3libNtB6_21IndexingConfigBuilder5builds_0Ba_
FN:270,_RNCNvNtNtCs5Xp1JEPGtUd_17fossil_headers_db7indexer3lib20spawn_router_service0B7_
FN:250,_RNCNvNtNtCs5Xp1JEPGtUd_17fossil_headers_db7indexer3lib22setup_database_and_rpc0B7_
FN:219,_RNCNvNtNtCs5Xp1JEPGtUd_17fossil_headers_db7indexer3lib23start_indexing_services0B7_
FN:371,_RNCNvNtNtCs5Xp1JEPGtUd_17fossil_headers_db7indexer3lib25initialize_index_metadata0B7_
FN:456,_RNCNvNtNtCs5Xp1JEPGtUd_17fossil_headers_db7indexer3lib26wait_for_thread_completion0B7_
FN:346,_RNCNvNtNtCs5Xp1JEPGtUd_17fossil_headers_db7indexer3lib27spawn_batch_indexer_service0B7_
FN:307,_RNCNvNtNtCs5Xp1JEPGtUd_17fossil_headers_db7indexer3lib27spawn_quick_indexer_service0B7_
FN:583,_RNCNvNtNtCs5Xp1JEPGtUd_17fossil_headers_db7indexer3lib36setup_backfill_for_existing_database0B7_
FN:531,_RNCNvNtNtCs5Xp1JEPGtUd_17fossil_headers_db7indexer3lib37should_setup_backfill_for_existing_db0B7_
FN:39,_RNvMNtNtCs5Xp1JEPGtUd_17fossil_headers_db7indexer3libNtB2_14IndexingConfig7builder
FN:93,_RNvMs_NtNtCs5Xp1JEPGtUd_17fossil_headers_db7indexer3libNtB4_21IndexingConfigBuilder10production
FN:73,_RNvMs_NtNtCs5Xp1JEPGtUd_17fossil_headers_db7indexer3libNtB4_21IndexingConfigBuilder11development
FN:121,_RNvMs_NtNtCs5Xp1JEPGtUd_17fossil_headers_db7indexer3libNtB4_21IndexingConfigBuilder11max_retries
FN:133,_RNvMs_NtNtCs5Xp1JEPGtUd_17fossil_headers_db7indexer3libNtB4_21IndexingConfigBuilder11rpc_timeout
FN:127,_RNvMs_NtNtCs5Xp1JEPGtUd_17fossil_headers_db7indexer3libNtB4_21IndexingConfigBuilder13poll_interval
FN:139,_RNvMs_NtNtCs5Xp1JEPGtUd_17fossil_headers_db7indexer3libNtB4_21IndexingConfigBuilder15rpc_max_retries
FN:145,_RNvMs_NtNtCs5Xp1JEPGtUd_17fossil_headers_db7indexer3libNtB4_21IndexingConfigBuilder16index_batch_size
FN:115,_RNvMs_NtNtCs5Xp1JEPGtUd_17fossil_headers_db7indexer3libNtB4_21IndexingConfigBuilder16should_index_txs
FN:151,_RNvMs_NtNtCs5Xp1JEPGtUd_17fossil_headers_db7indexer3libNtB4_21IndexingConfigBuilder18start_block_offset
FN:58,_RNvMs_NtNtCs5Xp1JEPGtUd_17fossil_headers_db7indexer3libNtB4_21IndexingConfigBuilder3new
FN:156,_RNvMs_NtNtCs5Xp1JEPGtUd_17fossil_headers_db7indexer3libNtB4_21IndexingConfigBuilder5build
FN:83,_RNvMs_NtNtCs5Xp1JEPGtUd_17fossil_headers_db7indexer3libNtB4_21IndexingConfigBuilder7testing
FN:509,_RNvNtNtCs5Xp1JEPGtUd_17fossil_headers_db7indexer3lib20format_error_details
FN:269,_RNvNtNtCs5Xp1JEPGtUd_17fossil_headers_db7indexer3lib20spawn_router_service
FN:248,_RNvNtNtCs5Xp1JEPGtUd_17fossil_headers_db7indexer3lib22setup_database_and_rpc
FN:216,_RNvNtNtCs5Xp1JEPGtUd_17fossil_headers_db7indexer3lib23start_indexing_services
FN:367,_RNvNtNtCs5Xp1JEPGtUd_17fossil_headers_db7indexer3lib25initialize_index_metadata
FN:456,_RNvNtNtCs5Xp1JEPGtUd_17fossil_headers_db7indexer3lib26wait_for_thread_completion
FN:328,_RNvNtNtCs5Xp1JEPGtUd_17fossil_headers_db7indexer3lib27spawn_batch_indexer_service
FN:291,_RNvNtNtCs5Xp1JEPGtUd_17fossil_headers_db7indexer3lib27spawn_quick_indexer_service
FN:578,_RNvNtNtCs5Xp1JEPGtUd_17fossil_headers_db7indexer3lib36setup_backfill_for_existing_database
FN:526,_RNvNtNtCs5Xp1JEPGtUd_17fossil_headers_db7indexer3lib37should_setup_backfill_for_existing_db
FN:211,_RNvXs0_NtNtCs5Xp1JEPGtUd_17fossil_headers_db7indexer3libNtB5_21IndexingConfigBuilderNtNtCs66KPHxksi63_4core7default7Default7default
FN:103,_RINvMs_NtNtCscwo6F0TH2eV_17fossil_headers_db7indexer3libNtB5_21IndexingConfigBuilder14db_conn_stringNtNtCs8Ty2CzGA6U3_5alloc6string6StringECsh9rWqc8ZKZD_14fossil_indexer
FN:109,_RINvMs_NtNtCscwo6F0TH2eV_17fossil_headers_db7indexer3libNtB5_21IndexingConfigBuilder16node_conn_stringNtNtCs8Ty2CzGA6U3_5alloc6string6StringECsh9rWqc8ZKZD_14fossil_indexer
FN:260,_RNCNCNvNtNtCscwo6F0TH2eV_17fossil_headers_db7indexer3lib22setup_database_and_rpc00Csh9rWqc8ZKZD_14fossil_indexer
FN:405,_RNCNCNvNtNtCscwo6F0TH2eV_17fossil_headers_db7indexer3lib25initialize_index_metadata00Csh9rWqc8ZKZD_14fossil_indexer
FN:429,_RNCNCNvNtNtCscwo6F0TH2eV_17fossil_headers_db7indexer3lib25initialize_index_metadata0s0_0Csh9rWqc8ZKZD_14fossil_indexer
FN:437,_RNCNCNvNtNtCscwo6F0TH2eV_17fossil_headers_db7indexer3lib25initialize_index_metadata0s1_0Csh9rWqc8ZKZD_14fossil_indexer
FN:443,_RNCNCNvNtNtCscwo6F0TH2eV_17fossil_headers_db7indexer3lib25initialize_index_metadata0s2_0Csh9rWqc8ZKZD_14fossil_indexer
FN:413,_RNCNCNvNtNtCscwo6F0TH2eV_17fossil_headers_db7indexer3lib25initialize_index_metadata0s_0Csh9rWqc8ZKZD_14fossil_indexer
FN:586,_RNCNCNvNtNtCscwo6F0TH2eV_17fossil_headers_db7indexer3lib36setup_backfill_for_existing_database00Csh9rWqc8ZKZD_14fossil_indexer
FN:600,_RNCNCNvNtNtCscwo6F0TH2eV_17fossil_headers_db7indexer3lib36setup_backfill_for_existing_database0s0_0Csh9rWqc8ZKZD_14fossil_indexer
FN:609,_RNCNCNvNtNtCscwo6F0TH2eV_17fossil_headers_db7indexer3lib36setup_backfill_for_existing_database0s1_0Csh9rWqc8ZKZD_14fossil_indexer
FN:622,_RNCNCNvNtNtCscwo6F0TH2eV_17fossil_headers_db7indexer3lib36setup_backfill_for_existing_database0s2_0Csh9rWqc8ZKZD_14fossil_indexer
FN:627,_RNCNCNvNtNtCscwo6F0TH2eV_17fossil_headers_db7indexer3lib36setup_backfill_for_existing_database0s3_0Csh9rWqc8ZKZD_14fossil_indexer
FN:596,_RNCNCNvNtNtCscwo6F0TH2eV_17fossil_headers_db7indexer3lib36setup_backfill_for_existing_database0s_0Csh9rWqc8ZKZD_14fossil_indexer
FN:250,_RNCNvNtNtCscwo6F0TH2eV_17fossil_headers_db7indexer3lib22setup_database_and_rpc0Csh9rWqc8ZKZD_14fossil_indexer
FN:219,_RNCNvNtNtCscwo6F0TH2eV_17fossil_headers_db7indexer3lib23start_indexing_services0Csh9rWqc8ZKZD_14fossil_indexer
FN:371,_RNCNvNtNtCscwo6F0TH2eV_17fossil_headers_db7indexer3lib25initialize_index_metadata0Csh9rWqc8ZKZD_14fossil_indexer
FN:456,_RNCNvNtNtCscwo6F0TH2eV_17fossil_headers_db7indexer3lib26wait_for_thread_completion0Csh9rWqc8ZKZD_14fossil_indexer
FN:583,_RNCNvNtNtCscwo6F0TH2eV_17fossil_headers_db7indexer3lib36setup_backfill_for_existing_database0Csh9rWqc8ZKZD_14fossil_indexer
FN:531,_RNCNvNtNtCscwo6F0TH2eV_17fossil_headers_db7indexer3lib37should_setup_backfill_for_existing_db0Csh9rWqc8ZKZD_14fossil_indexer
FN:103,_RINvMs_NtNtCscwo6F0TH2eV_17fossil_headers_db7indexer3libNtB5_21IndexingConfigBuilder14db_conn_stringNtNtCs8Ty2CzGA6U3_5alloc6string6StringECskmtwmJfGVHK_12test_indexer
FN:109,_RINvMs_NtNtCscwo6F0TH2eV_17fossil_headers_db7indexer3libNtB5_21IndexingConfigBuilder16node_conn_stringReECskmtwmJfGVHK_12test_indexer
FN:260,_RNCNCNvNtNtCscwo6F0TH2eV_17fossil_headers_db7indexer3lib22setup_database_and_rpc00CskmtwmJfGVHK_12test_indexer
FN:405,_RNCNCNvNtNtCscwo6F0TH2eV_17fossil_headers_db7indexer3lib25initialize_index_metadata00CskmtwmJfGVHK_12test_indexer
FN:429,_RNCNCNvNtNtCscwo6F0TH2eV_17fossil_headers_db7indexer3lib25initialize_index_metadata0s0_0CskmtwmJfGVHK_12test_indexer
FN:437,_RNCNCNvNtNtCscwo6F0TH2eV_17fossil_headers_db7indexer3lib25initialize_index_metadata0s1_0CskmtwmJfGVHK_12test_indexer
FN:443,_RNCNCNvNtNtCscwo6F0TH2eV_17fossil_headers_db7indexer3lib25initialize_index_metadata0s2_0CskmtwmJfGVHK_12test_indexer
FN:413,_RNCNCNvNtNtCscwo6F0TH2eV_17fossil_headers_db7indexer3lib25initialize_index_metadata0s_0CskmtwmJfGVHK_12test_indexer
FN:586,_RNCNCNvNtNtCscwo6F0TH2eV_17fossil_headers_db7indexer3lib36setup_backfill_for_existing_database00CskmtwmJfGVHK_12test_indexer
FN:600,_RNCNCNvNtNtCscwo6F0TH2eV_17fossil_headers_db7indexer3lib36setup_backfill_for_existing_database0s0_0CskmtwmJfGVHK_12test_indexer
FN:609,_RNCNCNvNtNtCscwo6F0TH2eV_17fossil_headers_db7indexer3lib36setup_backfill_for_existing_database0s1_0CskmtwmJfGVHK_12test_indexer
FN:622,_RNCNCNvNtNtCscwo6F0TH2eV_17fossil_headers_db7indexer3lib36setup_backfill_for_existing_database0s2_0CskmtwmJfGVHK_12test_indexer
FN:627,_RNCNCNvNtNtCscwo6F0TH2eV_17fossil_headers_db7indexer3lib36setup_backfill_for_existing_database0s3_0CskmtwmJfGVHK_12test_indexer
FN:596,_RNCNCNvNtNtCscwo6F0TH2eV_17fossil_headers_db7indexer3lib36setup_backfill_for_existing_database0s_0CskmtwmJfGVHK_12test_indexer
FN:250,_RNCNvNtNtCscwo6F0TH2eV_17fossil_headers_db7indexer3lib22setup_database_and_rpc0CskmtwmJfGVHK_12test_indexer
FN:219,_RNCNvNtNtCscwo6F0TH2eV_17fossil_headers_db7indexer3lib23start_indexing_services0CskmtwmJfGVHK_12test_indexer
FN:371,_RNCNvNtNtCscwo6F0TH2eV_17fossil_headers_db7indexer3lib25initialize_index_metadata0CskmtwmJfGVHK_12test_indexer
FN:456,_RNCNvNtNtCscwo6F0TH2eV_17fossil_headers_db7indexer3lib26wait_for_thread_completion0CskmtwmJfGVHK_12test_indexer
FN:583,_RNCNvNtNtCscwo6F0TH2eV_17fossil_headers_db7indexer3lib36setup_backfill_for_existing_database0CskmtwmJfGVHK_12test_indexer
FN:531,_RNCNvNtNtCscwo6F0TH2eV_17fossil_headers_db7indexer3lib37should_setup_backfill_for_existing_db0CskmtwmJfGVHK_12test_indexer
FNDA:0,_RNCNvMs_NtNtCscwo6F0TH2eV_17fossil_headers_db7indexer3libNtB6_21IndexingConfigBuilder5build0Ba_
FNDA:0,_RNCNvMs_NtNtCscwo6F0TH2eV_17fossil_headers_db7indexer3libNtB6_21IndexingConfigBuilder5builds_0Ba_
FNDA:3,_RNCNvNtNtCscwo6F0TH2eV_17fossil_headers_db7indexer3lib20spawn_router_service0B7_
FNDA:3,_RNCNvNtNtCscwo6F0TH2eV_17fossil_headers_db7indexer3lib27spawn_batch_indexer_service0B7_
FNDA:3,_RNCNvNtNtCscwo6F0TH2eV_17fossil_headers_db7indexer3lib27spawn_quick_indexer_service0B7_
FNDA:0,_RINvMs_NtNtCscwo6F0TH2eV_17fossil_headers_db7indexer3libNtB5_21IndexingConfigBuilder14db_conn_stringpEB9_
FNDA:0,_RINvMs_NtNtCscwo6F0TH2eV_17fossil_headers_db7indexer3libNtB5_21IndexingConfigBuilder16node_conn_stringpEB9_
FNDA:0,_RNCNCNvNtNtCscwo6F0TH2eV_17fossil_headers_db7indexer3lib22setup_database_and_rpc00B9_
FNDA:0,_RNCNCNvNtNtCscwo6F0TH2eV_17fossil_headers_db7indexer3lib25initialize_index_metadata00B9_
FNDA:0,_RNCNCNvNtNtCscwo6F0TH2eV_17fossil_headers_db7indexer3lib25initialize_index_metadata0s0_0B9_
FNDA:0,_RNCNCNvNtNtCscwo6F0TH2eV_17fossil_headers_db7indexer3lib25initialize_index_metadata0s1_0B9_
FNDA:0,_RNCNCNvNtNtCscwo6F0TH2eV_17fossil_headers_db7indexer3lib25initialize_index_metadata0s2_0B9_
FNDA:0,_RNCNCNvNtNtCscwo6F0TH2eV_17fossil_headers_db7indexer3lib25initialize_index_metadata0s_0B9_
FNDA:0,_RNCNCNvNtNtCscwo6F0TH2eV_17fossil_headers_db7indexer3lib36setup_backfill_for_existing_database00B9_
FNDA:0,_RNCNCNvNtNtCscwo6F0TH2eV_17fossil_headers_db7indexer3lib36setup_backfill_for_existing_database0s0_0B9_
FNDA:0,_RNCNCNvNtNtCscwo6F0TH2eV_17fossil_headers_db7indexer3lib36setup_backfill_for_existing_database0s1_0B9_
FNDA:0,_RNCNCNvNtNtCscwo6F0TH2eV_17fossil_headers_db7indexer3lib36setup_backfill_for_existing_database0s2_0B9_
FNDA:0,_RNCNCNvNtNtCscwo6F0TH2eV_17fossil_headers_db7indexer3lib36setup_backfill_for_existing_database0s3_0B9_
FNDA:0,_RNCNCNvNtNtCscwo6F0TH2eV_17fossil_headers_db7indexer3lib36setup_backfill_for_existing_database0s_0B9_
FNDA:0,_RNCNvNtNtCscwo6F0TH2eV_17fossil_headers_db7indexer3lib22setup_database_and_rpc0B7_
FNDA:0,_RNCNvNtNtCscwo6F0TH2eV_17fossil_headers_db7indexer3lib23start_indexing_services0B7_
FNDA:0,_RNCNvNtNtCscwo6F0TH2eV_17fossil_headers_db7indexer3lib25initialize_index_metadata0B7_
FNDA:0,_RNCNvNtNtCscwo6F0TH2eV_17fossil_headers_db7indexer3lib26wait_for_thread_completion0B7_
FNDA:0,_RNCNvNtNtCscwo6F0TH2eV_17fossil_headers_db7indexer3lib36setup_backfill_for_existing_database0B7_
FNDA:0,_RNCNvNtNtCscwo6F0TH2eV_17fossil_headers_db7indexer3lib37should_setup_backfill_for_existing_db0B7_
FNDA:1,_RNvMNtNtCscwo6F0TH2eV_17fossil_headers_db7indexer3libNtB2_14IndexingConfig7builder
FNDA:0,_RNvMs_NtNtCscwo6F0TH2eV_17fossil_headers_db7indexer3libNtB4_21IndexingConfigBuilder10production
FNDA:0,_RNvMs_NtNtCscwo6F0TH2eV_17fossil_headers_db7indexer3libNtB4_21IndexingConfigBuilder11development
FNDA:4,_RNvMs_NtNtCscwo6F0TH2eV_17fossil_headers_db7indexer3libNtB4_21IndexingConfigBuilder11max_retries
FNDA:6,_RNvMs_NtNtCscwo6F0TH2eV_17fossil_headers_db7indexer3libNtB4_21IndexingConfigBuilder11rpc_timeout
FNDA:4,_RNvMs_NtNtCscwo6F0TH2eV_17fossil_headers_db7indexer3libNtB4_21IndexingConfigBuilder13poll_interval
FNDA:4,_RNvMs_NtNtCscwo6F0TH2eV_17fossil_headers_db7indexer3libNtB4_21IndexingConfigBuilder15rpc_max_retries
FNDA:7,_RNvMs_NtNtCscwo6F0TH2eV_17fossil_headers_db7indexer3libNtB4_21IndexingConfigBuilder16index_batch_size
FNDA:4,_RNvMs_NtNtCscwo6F0TH2eV_17fossil_headers_db7indexer3libNtB4_21IndexingConfigBuilder16should_index_txs
FNDA:0,_RNvMs_NtNtCscwo6F0TH2eV_17fossil_headers_db7indexer3libNtB4_21IndexingConfigBuilder18start_block_offset
FNDA:4,_RNvMs_NtNtCscwo6F0TH2eV_17fossil_headers_db7indexer3libNtB4_21IndexingConfigBuilder3new
FNDA:4,_RNvMs_NtNtCscwo6F0TH2eV_17fossil_headers_db7indexer3libNtB4_21IndexingConfigBuilder5build
FNDA:3,_RNvMs_NtNtCscwo6F0TH2eV_17fossil_headers_db7indexer3libNtB4_21IndexingConfigBuilder7testing
FNDA:0,_RNvNtNtCscwo6F0TH2eV_17fossil_headers_db7indexer3lib20format_error_details
FNDA:3,_RNvNtNtCscwo6F0TH2eV_17fossil_headers_db7indexer3lib20spawn_router_service
FNDA:4,_RNvNtNtCscwo6F0TH2eV_17fossil_headers_db7indexer3lib22setup_database_and_rpc
FNDA:4,_RNvNtNtCscwo6F0TH2eV_17fossil_headers_db7indexer3lib23start_indexing_services
FNDA:4,_RNvNtNtCscwo6F0TH2eV_17fossil_headers_db7indexer3lib25initialize_index_metadata
FNDA:3,_RNvNtNtCscwo6F0TH2eV_17fossil_headers_db7indexer3lib26wait_for_thread_completion
FNDA:3,_RNvNtNtCscwo6F0TH2eV_17fossil_headers_db7indexer3lib27spawn_batch_indexer_service
FNDA:3,_RNvNtNtCscwo6F0TH2eV_17fossil_headers_db7indexer3lib27spawn_quick_indexer_service
FNDA:0,_RNvNtNtCscwo6F0TH2eV_17fossil_headers_db7indexer3lib36setup_backfill_for_existing_database
FNDA:0,_RNvNtNtCscwo6F0TH2eV_17fossil_headers_db7indexer3lib37should_setup_backfill_for_existing_db
FNDA:0,_RNvXs0_NtNtCscwo6F0TH2eV_17fossil_headers_db7indexer3libNtB5_21IndexingConfigBuilderNtNtCs66KPHxksi63_4core7default7Default7default
FNDA:0,_RINvMs_NtNtCs5Xp1JEPGtUd_17fossil_headers_db7indexer3libNtB5_21IndexingConfigBuilder14db_conn_stringpEB9_
FNDA:0,_RINvMs_NtNtCs5Xp1JEPGtUd_17fossil_headers_db7indexer3libNtB5_21IndexingConfigBuilder16node_conn_stringpEB9_
FNDA:0,_RNCNCNvNtNtCs5Xp1JEPGtUd_17fossil_headers_db7indexer3lib22setup_database_and_rpc00B9_
FNDA:0,_RNCNCNvNtNtCs5Xp1JEPGtUd_17fossil_headers_db7indexer3lib25initialize_index_metadata00B9_
FNDA:0,_RNCNCNvNtNtCs5Xp1JEPGtUd_17fossil_headers_db7indexer3lib25initialize_index_metadata0s0_0B9_
FNDA:0,_RNCNCNvNtNtCs5Xp1JEPGtUd_17fossil_headers_db7indexer3lib25initialize_index_metadata0s1_0B9_
FNDA:0,_RNCNCNvNtNtCs5Xp1JEPGtUd_17fossil_headers_db7indexer3lib25initialize_index_metadata0s2_0B9_
FNDA:0,_RNCNCNvNtNtCs5Xp1JEPGtUd_17fossil_headers_db7indexer3lib25initialize_index_metadata0s_0B9_
FNDA:0,_RNCNCNvNtNtCs5Xp1JEPGtUd_17fossil_headers_db7indexer3lib36setup_backfill_for_existing_database00B9_
FNDA:0,_RNCNCNvNtNtCs5Xp1JEPGtUd_17fossil_headers_db7indexer3lib36setup_backfill_for_existing_database0s0_0B9_
FNDA:0,_RNCNCNvNtNtCs5Xp1JEPGtUd_17fossil_headers_db7indexer3lib36setup_backfill_for_existing_database0s1_0B9_
FNDA:0,_RNCNCNvNtNtCs5Xp1JEPGtUd_17fossil_headers_db7indexer3lib36setup_backfill_for_existing_database0s2_0B9_
FNDA:0,_RNCNCNvNtNtCs5Xp1JEPGtUd_17fossil_headers_db7indexer3lib36setup_backfill_for_existing_database0s3_0B9_
FNDA:0,_RNCNCNvNtNtCs5Xp1JEPGtUd_17fossil_headers_db7indexer3lib36setup_backfill_for_existing_database0s_0B9_
FNDA:0,_RNCNvMs_NtNtCs5Xp1JEPGtUd_17fossil_headers_db7indexer3libNtB6_21IndexingConfigBuilder5build0Ba_
FNDA:0,_RNCNvMs_NtNtCs5Xp1JEPGtUd_17fossil_headers_db7indexer3libNtB6_21IndexingConfigBuilder5builds_0Ba_
FNDA:0,_RNCNvNtNtCs5Xp1JEPGtUd_17fossil_headers_db7indexer3lib20spawn_router_service0B7_
FNDA:0,_RNCNvNtNtCs5Xp1JEPGtUd_17fossil_headers_db7indexer3lib22setup_database_and_rpc0B7_
FNDA:0,_RNCNvNtNtCs5Xp1JEPGtUd_17fossil_headers_db7indexer3lib23start_indexing_services0B7_
FNDA:0,_RNCNvNtNtCs5Xp1JEPGtUd_17fossil_headers_db7indexer3lib25initialize_index_metadata0B7_
FNDA:0,_RNCNvNtNtCs5Xp1JEPGtUd_17fossil_headers_db7indexer3lib26wait_for_thread_completion0B7_
FNDA:0,_RNCNvNtNtCs5Xp1JEPGtUd_17fossil_headers_db7indexer3lib27spawn_batch_indexer_service0B7_
FNDA:0,_RNCNvNtNtCs5Xp1JEPGtUd_17fossil_headers_db7indexer3lib27spawn_quick_indexer_service0B7_
FNDA:0,_RNCNvNtNtCs5Xp1JEPGtUd_17fossil_headers_db7indexer3lib36setup_backfill_for_existing_database0B7_
FNDA:0,_RNCNvNtNtCs5Xp1JEPGtUd_17fossil_headers_db7indexer3lib37should_setup_backfill_for_existing_db0B7_
FNDA:0,_RNvMNtNtCs5Xp1JEPGtUd_17fossil_headers_db7indexer3libNtB2_14IndexingConfig7builder
FNDA:0,_RNvMs_NtNtCs5Xp1JEPGtUd_17fossil_headers_db7indexer3libNtB4_21IndexingConfigBuilder10production
FNDA:0,_RNvMs_NtNtCs5Xp1JEPGtUd_17fossil_headers_db7indexer3libNtB4_21IndexingConfigBuilder11development
FNDA:0,_RNvMs_NtNtCs5Xp1JEPGtUd_17fossil_headers_db7indexer3libNtB4_21IndexingConfigBuilder11max_retries
FNDA:0,_RNvMs_NtNtCs5Xp1JEPGtUd_17fossil_headers_db7indexer3libNtB4_21IndexingConfigBuilder11rpc_timeout
FNDA:0,_RNvMs_NtNtCs5Xp1JEPGtUd_17fossil_headers_db7indexer3libNtB4_21IndexingConfigBuilder13poll_interval
FNDA:0,_RNvMs_NtNtCs5Xp1JEPGtUd_17fossil_headers_db7indexer3libNtB4_21IndexingConfigBuilder15rpc_max_retries
FNDA:0,_RNvMs_NtNtCs5Xp1JEPGtUd_17fossil_headers_db7indexer3libNtB4_21IndexingConfigBuilder16index_batch_size
FNDA:0,_RNvMs_NtNtCs5Xp1JEPGtUd_17fossil_headers_db7indexer3libNtB4_21IndexingConfigBuilder16should_index_txs
FNDA:0,_RNvMs_NtNtCs5Xp1JEPGtUd_17fossil_headers_db7indexer3libNtB4_21IndexingConfigBuilder18start_block_offset
FNDA:0,_RNvMs_NtNtCs5Xp1JEPGtUd_17fossil_headers_db7indexer3libNtB4_21IndexingConfigBuilder3new
FNDA:0,_RNvMs_NtNtCs5Xp1JEPGtUd_17fossil_headers_db7indexer3libNtB4_21IndexingConfigBuilder5build
FNDA:0,_RNvMs_NtNtCs5Xp1JEPGtUd_17fossil_headers_db7indexer3libNtB4_21IndexingConfigBuilder7testing
FNDA:0,_RNvNtNtCs5Xp1JEPGtUd_17fossil_headers_db7indexer3lib20format_error_details
FNDA:0,_RNvNtNtCs5Xp1JEPGtUd_17fossil_headers_db7indexer3lib20spawn_router_service
FNDA:0,_RNvNtNtCs5Xp1JEPGtUd_17fossil_headers_db7indexer3lib22setup_database_and_rpc
FNDA:0,_RNvNtNtCs5Xp1JEPGtUd_17fossil_headers_db7indexer3lib23start_indexing_services
FNDA:0,_RNvNtNtCs5Xp1JEPGtUd_17fossil_headers_db7indexer3lib25initialize_index_metadata
FNDA:0,_RNvNtNtCs5Xp1JEPGtUd_17fossil_headers_db7indexer3lib26wait_for_thread_completion
FNDA:0,_RNvNtNtCs5Xp1JEPGtUd_17fossil_headers_db7indexer3lib27spawn_batch_indexer_service
FNDA:0,_RNvNtNtCs5Xp1JEPGtUd_17fossil_headers_db7indexer3lib27spawn_quick_indexer_service
FNDA:0,_RNvNtNtCs5Xp1JEPGtUd_17fossil_headers_db7indexer3lib36setup_backfill_for_existing_database
FNDA:0,_RNvNtNtCs5Xp1JEPGtUd_17fossil_headers_db7indexer3lib37should_setup_backfill_for_existing_db
FNDA:0,_RNvXs0_NtNtCs5Xp1JEPGtUd_17fossil_headers_db7indexer3libNtB5_21IndexingConfigBuilderNtNtCs66KPHxksi63_4core7default7Default7default
FNDA:0,_RINvMs_NtNtCscwo6F0TH2eV_17fossil_headers_db7indexer3libNtB5_21IndexingConfigBuilder14db_conn_stringNtNtCs8Ty2CzGA6U3_5alloc6string6StringECsh9rWqc8ZKZD_14fossil_indexer
FNDA:0,_RINvMs_NtNtCscwo6F0TH2eV_17fossil_headers_db7indexer3libNtB5_21IndexingConfigBuilder16node_conn_stringNtNtCs8Ty2CzGA6U3_5alloc6string6StringECsh9rWqc8ZKZD_14fossil_indexer
FNDA:0,_RNCNCNvNtNtCscwo6F0TH2eV_17fossil_headers_db7indexer3lib22setup_database_and_rpc00Csh9rWqc8ZKZD_14fossil_indexer
FNDA:0,_RNCNCNvNtNtCscwo6F0TH2eV_17fossil_headers_db7indexer3lib25initialize_index_metadata00Csh9rWqc8ZKZD_14fossil_indexer
FNDA:0,_RNCNCNvNtNtCscwo6F0TH2eV_17fossil_headers_db7indexer3lib25initialize_index_metadata0s0_0Csh9rWqc8ZKZD_14fossil_indexer
FNDA:0,_RNCNCNvNtNtCscwo6F0TH2eV_17fossil_headers_db7indexer3lib25initialize_index_metadata0s1_0Csh9rWqc8ZKZD_14fossil_indexer
FNDA:0,_RNCNCNvNtNtCscwo6F0TH2eV_17fossil_headers_db7indexer3lib25initialize_index_metadata0s2_0Csh9rWqc8ZKZD_14fossil_indexer
FNDA:0,_RNCNCNvNtNtCscwo6F0TH2eV_17fossil_headers_db7indexer3lib25initialize_index_metadata0s_0Csh9rWqc8ZKZD_14fossil_indexer
FNDA:0,_RNCNCNvNtNtCscwo6F0TH2eV_17fossil_headers_db7indexer3lib36setup_backfill_for_existing_database00Csh9rWqc8ZKZD_14fossil_indexer
FNDA:0,_RNCNCNvNtNtCscwo6F0TH2eV_17fossil_headers_db7indexer3lib36setup_backfill_for_existing_database0s0_0Csh9rWqc8ZKZD_14fossil_indexer
FNDA:0,_RNCNCNvNtNtCscwo6F0TH2eV_17fossil_headers_db7indexer3lib36setup_backfill_for_existing_database0s1_0Csh9rWqc8ZKZD_14fossil_indexer
FNDA:0,_RNCNCNvNtNtCscwo6F0TH2eV_17fossil_headers_db7indexer3lib36setup_backfill_for_existing_database0s2_0Csh9rWqc8ZKZD_14fossil_indexer
FNDA:0,_RNCNCNvNtNtCscwo6F0TH2eV_17fossil_headers_db7indexer3lib36setup_backfill_for_existing_database0s3_0Csh9rWqc8ZKZD_14fossil_indexer
FNDA:0,_RNCNCNvNtNtCscwo6F0TH2eV_17fossil_headers_db7indexer3lib36setup_backfill_for_existing_database0s_0Csh9rWqc8ZKZD_14fossil_indexer
FNDA:0,_RNCNvNtNtCscwo6F0TH2eV_17fossil_headers_db7indexer3lib22setup_database_and_rpc0Csh9rWqc8ZKZD_14fossil_indexer
FNDA:0,_RNCNvNtNtCscwo6F0TH2eV_17fossil_headers_db7indexer3lib23start_indexing_services0Csh9rWqc8ZKZD_14fossil_indexer
FNDA:0,_RNCNvNtNtCscwo6F0TH2eV_17fossil_headers_db7indexer3lib25initialize_index_metadata0Csh9rWqc8ZKZD_14fossil_indexer
FNDA:0,_RNCNvNtNtCscwo6F0TH2eV_17fossil_headers_db7indexer3lib26wait_for_thread_completion0Csh9rWqc8ZKZD_14fossil_indexer
FNDA:0,_RNCNvNtNtCscwo6F0TH2eV_17fossil_headers_db7indexer3lib36setup_backfill_for_existing_database0Csh9rWqc8ZKZD_14fossil_indexer
FNDA:0,_RNCNvNtNtCscwo6F0TH2eV_17fossil_headers_db7indexer3lib37should_setup_backfill_for_existing_db0Csh9rWqc8ZKZD_14fossil_indexer
FNDA:4,_RINvMs_NtNtCscwo6F0TH2eV_17fossil_headers_db7indexer3libNtB5_21IndexingConfigBuilder14db_conn_stringNtNtCs8Ty2CzGA6U3_5alloc6string6StringECskmtwmJfGVHK_12test_indexer
FNDA:4,_RINvMs_NtNtCscwo6F0TH2eV_17fossil_headers_db7indexer3libNtB5_21IndexingConfigBuilder16node_conn_stringReECskmtwmJfGVHK_12test_indexer
FNDA:0,_RNCNCNvNtNtCscwo6F0TH2eV_17fossil_headers_db7indexer3lib22setup_database_and_rpc00CskmtwmJfGVHK_12test_indexer
FNDA:3,_RNCNCNvNtNtCscwo6F0TH2eV_17fossil_headers_db7indexer3lib25initialize_index_metadata00CskmtwmJfGVHK_12test_indexer
FNDA:0,_RNCNCNvNtNtCscwo6F0TH2eV_17fossil_headers_db7indexer3lib25initialize_index_metadata0s0_0CskmtwmJfGVHK_12test_indexer
FNDA:0,_RNCNCNvNtNtCscwo6F0TH2eV_17fossil_headers_db7indexer3lib25initialize_index_metadata0s1_0CskmtwmJfGVHK_12test_indexer
FNDA:0,_RNCNCNvNtNtCscwo6F0TH2eV_17fossil_headers_db7indexer3lib25initialize_index_metadata0s2_0CskmtwmJfGVHK_12test_indexer
FNDA:0,_RNCNCNvNtNtCscwo6F0TH2eV_17fossil_headers_db7indexer3lib25initialize_index_metadata0s_0CskmtwmJfGVHK_12test_indexer
FNDA:0,_RNCNCNvNtNtCscwo6F0TH2eV_17fossil_headers_db7indexer3lib36setup_backfill_for_existing_database00CskmtwmJfGVHK_12test_indexer
FNDA:0,_RNCNCNvNtNtCscwo6F0TH2eV_17fossil_headers_db7indexer3lib36setup_backfill_for_existing_database0s0_0CskmtwmJfGVHK_12test_indexer
FNDA:0,_RNCNCNvNtNtCscwo6F0TH2eV_17fossil_headers_db7indexer3lib36setup_backfill_for_existing_database0s1_0CskmtwmJfGVHK_12test_indexer
FNDA:0,_RNCNCNvNtNtCscwo6F0TH2eV_17fossil_headers_db7indexer3lib36setup_backfill_for_existing_database0s2_0CskmtwmJfGVHK_12test_indexer
FNDA:0,_RNCNCNvNtNtCscwo6F0TH2eV_17fossil_headers_db7indexer3lib36setup_backfill_for_existing_database0s3_0CskmtwmJfGVHK_12test_indexer
FNDA:0,_RNCNCNvNtNtCscwo6F0TH2eV_17fossil_headers_db7indexer3lib36setup_backfill_for_existing_database0s_0CskmtwmJfGVHK_12test_indexer
FNDA:4,_RNCNvNtNtCscwo6F0TH2eV_17fossil_headers_db7indexer3lib22setup_database_and_rpc0CskmtwmJfGVHK_12test_indexer
FNDA:4,_RNCNvNtNtCscwo6F0TH2eV_17fossil_headers_db7indexer3lib23start_indexing_services0CskmtwmJfGVHK_12test_indexer
FNDA:4,_RNCNvNtNtCscwo6F0TH2eV_17fossil_headers_db7indexer3lib25initialize_index_metadata0CskmtwmJfGVHK_12test_indexer
FNDA:3,_RNCNvNtNtCscwo6F0TH2eV_17fossil_headers_db7indexer3lib26wait_for_thread_completion0CskmtwmJfGVHK_12test_indexer
FNDA:0,_RNCNvNtNtCscwo6F0TH2eV_17fossil_headers_db7indexer3lib36setup_backfill_for_existing_database0CskmtwmJfGVHK_12test_indexer
FNDA:0,_RNCNvNtNtCscwo6F0TH2eV_17fossil_headers_db7indexer3lib37should_setup_backfill_for_existing_db0CskmtwmJfGVHK_12test_indexer
FNF:49
FNH:27
DA:39,1
DA:40,1
DA:41,1
DA:58,4
DA:59,4
DA:60,4
DA:61,4
DA:62,4
DA:63,4
DA:64,4
DA:65,4
DA:66,4
DA:67,4
DA:68,4
DA:69,4
DA:70,4
DA:73,0
DA:74,0
DA:75,0
DA:76,0
DA:77,0
DA:78,0
DA:79,0
DA:80,0
DA:83,3
DA:84,3
DA:85,3
DA:86,3
DA:87,3
DA:88,3
DA:89,3
DA:90,3
DA:93,0
DA:94,0
DA:95,0
DA:96,0
DA:97,0
DA:98,0
DA:99,0
DA:100,0
DA:103,4
DA:104,4
DA:105,4
DA:106,4
DA:109,4
DA:110,4
DA:111,4
DA:112,4
DA:115,4
DA:116,4
DA:117,4
DA:118,4
DA:121,4
DA:122,4
DA:123,4
DA:124,4
DA:127,4
DA:128,4
DA:129,4
DA:130,4
DA:133,6
DA:134,6
DA:135,6
DA:136,6
DA:139,4
DA:140,4
DA:141,4
DA:142,4
DA:145,7
DA:146,7
DA:147,7
DA:148,7
DA:151,0
DA:152,0
DA:153,0
DA:154,0
DA:156,4
DA:157,4
DA:158,0
DA:162,0
DA:164,4
DA:165,0
DA:166,0
DA:168,4
DA:169,0
DA:170,0
DA:171,0
DA:172,0
DA:173,4
DA:175,4
DA:176,0
DA:177,0
DA:178,0
DA:179,0
DA:180,4
DA:182,4
DA:183,0
DA:184,0
DA:185,0
DA:186,0
DA:187,4
DA:189,4
DA:190,0
DA:191,0
DA:192,0
DA:193,0
DA:194,4
DA:196,4
DA:197,4
DA:198,4
DA:199,4
DA:200,4
DA:201,4
DA:202,4
DA:203,4
DA:204,4
DA:205,4
DA:206,4
DA:207,4
DA:211,0
DA:212,0
DA:213,0
DA:216,4
DA:217,4
DA:218,4
DA:219,4
DA:220,4
DA:222,4
DA:224,3
DA:225,3
DA:226,3
DA:227,3
DA:228,3
DA:229,3
DA:230,0
DA:231,3
DA:232,3
DA:233,3
DA:234,3
DA:235,3
DA:236,0
DA:238,3
DA:239,3
DA:240,3
DA:241,3
DA:242,3
DA:243,3
DA:245,0
DA:246,1
DA:248,4
DA:249,4
DA:250,4
DA:251,4
DA:252,4
DA:254,4
DA:255,4
DA:256,4
DA:259,4
DA:260,4
DA:261,0
DA:262,0
DA:264,4
DA:266,4
DA:267,4
DA:269,3
DA:270,3
DA:271,3
DA:272,3
DA:274,0
DA:275,0
DA:277,3
DA:278,3
DA:279,0
DA:282,3
DA:283,3
DA:284,3
DA:285,3
DA:288,3
DA:289,3
DA:291,3
DA:292,3
DA:293,3
DA:294,3
DA:295,3
DA:296,3
DA:297,3
DA:298,3
DA:299,3
DA:300,3
DA:301,3
DA:302,3
DA:303,3
DA:305,3
DA:307,3
DA:308,3
DA:309,3
DA:311,0
DA:312,0
DA:314,0
DA:315,0
DA:316,0
DA:319,0
DA:320,0
DA:321,0
DA:322,0
DA:325,0
DA:326,3
DA:328,3
DA:329,3
DA:330,3
DA:331,3
DA:332,3
DA:333,3
DA:334,3
DA:335,3
DA:336,3
DA:337,3
DA:338,3
DA:339,3
DA:340,3
DA:341,3
DA:342,3
DA:344,3
DA:346,3
DA:347,3
DA:348,3
DA:350,3
DA:351,3
DA:353,0
DA:354,0
DA:355,0
DA:358,0
DA:359,0
DA:360,0
DA:361,0
DA:364,3
DA:365,3
DA:367,4
DA:368,4
DA:369,4
DA:370,4
DA:371,4
DA:372,4
DA:375,3
DA:378,0
DA:379,0
DA:380,0
DA:381,0
DA:382,0
DA:383,0
DA:384,0
DA:386,0
DA:387,0
DA:388,0
DA:390,0
DA:391,0
DA:392,0
DA:393,0
DA:394,0
DA:395,0
DA:396,0
DA:397,0
DA:399,0
DA:400,3
DA:404,3
DA:405,3
DA:407,3
DA:408,3
DA:410,0
DA:412,3
DA:413,0
DA:417,3
DA:419,3
DA:420,3
DA:421,3
DA:422,3
DA:423,3
DA:424,3
DA:425,3
DA:428,3
DA:429,3
DA:430,0
DA:431,0
DA:433,3
DA:434,3
DA:435,3
DA:436,3
DA:437,3
DA:438,0
DA:439,0
DA:441,0
DA:443,3
DA:444,0
DA:445,0
DA:446,0
DA:448,3
DA:449,3
DA:450,0
DA:452,0
DA:453,4
DA:456,3
DA:457,3
DA:459,6
DA:460,6
DA:461,3
DA:462,3
DA:463,0
DA:464,0
DA:467,6
DA:469,0
DA:471,3
DA:472,3
DA:473,0
DA:476,3
DA:477,0
DA:479,0
DA:481,3
DA:483,0
DA:484,0
DA:485,0
DA:486,0
DA:487,0
DA:488,0
DA:489,0
DA:490,0
DA:491,0
DA:496,0
DA:497,0
DA:498,0
DA:500,0
DA:501,0
DA:502,0
DA:503,0
DA:505,0
DA:506,0
DA:507,0
DA:509,0
DA:510,0
DA:511,0
DA:513,0
DA:514,0
DA:515,0
DA:516,0
DA:517,0
DA:519,0
DA:520,0
DA:526,0
DA:527,0
DA:528,0
DA:529,0
DA:530,0
DA:531,0
DA:534,0
DA:536,0
DA:538,0
DA:539,0
DA:540,0
DA:543,0
DA:544,0
DA:545,0
DA:546,0
DA:547,0
DA:548,0
DA:550,0
DA:551,0
DA:552,0
DA:555,0
DA:556,0
DA:557,0
DA:558,0
DA:562,0
DA:563,0
DA:564,0
DA:565,0
DA:568,0
DA:569,0
DA:571,0
DA:572,0
DA:578,0
DA:579,0
DA:580,0
DA:581,0
DA:582,0
DA:583,0
DA:585,0
DA:586,0
DA:590,0
DA:591,0
DA:593,0
DA:595,0
DA:596,0
DA:600,0
DA:601,0
DA:602,0
DA:605,0
DA:606,0
DA:607,0
DA:608,0
DA:609,0
DA:610,0
DA:611,0
DA:614,0
DA:617,0
DA:618,0
DA:619,0
DA:620,0
DA:621,0
DA:622,0
DA:623,0
DA:624,0
DA:625,0
DA:627,0
DA:628,0
DA:629,0
DA:632,0
DA:633,0
DA:634,0
DA:635,0
DA:636,0
DA:638,0
DA:639,0
DA:640,0
DA:644,0
DA:645,0
BRF:0
BRH:0
LF:453
LH:219
end_of_record
SF:/home/ametel/source/fossil-headers-db/src/indexer/main.rs
FN:104,_RNCNCNCNvCs88sW1FLpFbj_14fossil_indexer16setup_panic_hook0s0_00B7_
FN:97,_RNCNCNvCs88sW1FLpFbj_14fossil_indexer16setup_panic_hook00B5_
FN:102,_RNCNCNvCs88sW1FLpFbj_14fossil_indexer16setup_panic_hook0s0_0B5_
FN:108,_RNCNCNvCs88sW1FLpFbj_14fossil_indexer16setup_panic_hook0s1_0B5_
FN:98,_RNCNCNvCs88sW1FLpFbj_14fossil_indexer16setup_panic_hook0s_0B5_
FN:15,_RNCNCNvCs88sW1FLpFbj_14fossil_indexer4main00B5_
FN:21,_RNCNCNvCs88sW1FLpFbj_14fossil_indexer4main0s0_0B5_
FN:24,_RNCNCNvCs88sW1FLpFbj_14fossil_indexer4main0s1_0B5_
FN:29,_RNCNCNvCs88sW1FLpFbj_14fossil_indexer4main0s2_0B5_
FN:31,_RNCNCNvCs88sW1FLpFbj_14fossil_indexer4main0s3_0B5_
FN:40,_RNCNCNvCs88sW1FLpFbj_14fossil_indexer4main0s4_0B5_
FN:16,_RNCNCNvCs88sW1FLpFbj_14fossil_indexer4main0s_0B5_
FN:95,_RNCNvCs88sW1FLpFbj_14fossil_indexer16setup_panic_hook0B3_
FN:85,_RNCNvCs88sW1FLpFbj_14fossil_indexer19setup_ctrlc_handler0B3_
FN:90,_RNCNvCs88sW1FLpFbj_14fossil_indexer19setup_ctrlc_handlers_0B3_
FN:14,_RNCNvCs88sW1FLpFbj_14fossil_indexer4main0B3_
FN:94,_RNvCs88sW1FLpFbj_14fossil_indexer16setup_panic_hook
FN:133,_RNvCs88sW1FLpFbj_14fossil_indexer18format_error_chain
FN:84,_RNvCs88sW1FLpFbj_14fossil_indexer19setup_ctrlc_handler
FN:14,_RNvCs88sW1FLpFbj_14fossil_indexer4main
FN:94,_RNvCsh9rWqc8ZKZD_14fossil_indexer16setup_panic_hook
FN:133,_RNvCsh9rWqc8ZKZD_14fossil_indexer18format_error_chain
FN:84,_RNvCsh9rWqc8ZKZD_14fossil_indexer19setup_ctrlc_handler
FN:14,_RNvCsh9rWqc8ZKZD_14fossil_indexer4main
FN:104,_RNCNCNCNvCsh9rWqc8ZKZD_14fossil_indexer16setup_panic_hook0s0_00B7_
FN:97,_RNCNCNvCsh9rWqc8ZKZD_14fossil_indexer16setup_panic_hook00B5_
FN:102,_RNCNCNvCsh9rWqc8ZKZD_14fossil_indexer16setup_panic_hook0s0_0B5_
FN:108,_RNCNCNvCsh9rWqc8ZKZD_14fossil_indexer16setup_panic_hook0s1_0B5_
FN:98,_RNCNCNvCsh9rWqc8ZKZD_14fossil_indexer16setup_panic_hook0s_0B5_
FN:15,_RNCNCNvCsh9rWqc8ZKZD_14fossil_indexer4main00B5_
FN:21,_RNCNCNvCsh9rWqc8ZKZD_14fossil_indexer4main0s0_0B5_
FN:24,_RNCNCNvCsh9rWqc8ZKZD_14fossil_indexer4main0s1_0B5_
FN:29,_RNCNCNvCsh9rWqc8ZKZD_14fossil_indexer4main0s2_0B5_
FN:31,_RNCNCNvCsh9rWqc8ZKZD_14fossil_indexer4main0s3_0B5_
FN:40,_RNCNCNvCsh9rWqc8ZKZD_14fossil_indexer4main0s4_0B5_
FN:16,_RNCNCNvCsh9rWqc8ZKZD_14fossil_indexer4main0s_0B5_
FN:95,_RNCNvCsh9rWqc8ZKZD_14fossil_indexer16setup_panic_hook0B3_
FN:85,_RNCNvCsh9rWqc8ZKZD_14fossil_indexer19setup_ctrlc_handler0B3_
FN:90,_RNCNvCsh9rWqc8ZKZD_14fossil_indexer19setup_ctrlc_handlers_0B3_
FN:14,_RNCNvCsh9rWqc8ZKZD_14fossil_indexer4main0B3_
FNDA:0,_RNCNCNCNvCs88sW1FLpFbj_14fossil_indexer16setup_panic_hook0s0_00B7_
FNDA:0,_RNCNCNvCs88sW1FLpFbj_14fossil_indexer16setup_panic_hook00B5_
FNDA:0,_RNCNCNvCs88sW1FLpFbj_14fossil_indexer16setup_panic_hook0s0_0B5_
FNDA:0,_RNCNCNvCs88sW1FLpFbj_14fossil_indexer16setup_panic_hook0s1_0B5_
FNDA:0,_RNCNCNvCs88sW1FLpFbj_14fossil_indexer16setup_panic_hook0s_0B5_
FNDA:0,_RNCNCNvCs88sW1FLpFbj_14fossil_indexer4main00B5_
FNDA:0,_RNCNCNvCs88sW1FLpFbj_14fossil_indexer4main0s0_0B5_
FNDA:0,_RNCNCNvCs88sW1FLpFbj_14fossil_indexer4main0s1_0B5_
FNDA:0,_RNCNCNvCs88sW1FLpFbj_14fossil_indexer4main0s2_0B5_
FNDA:0,_RNCNCNvCs88sW1FLpFbj_14fossil_indexer4main0s3_0B5_
FNDA:0,_RNCNCNvCs88sW1FLpFbj_14fossil_indexer4main0s4_0B5_
FNDA:0,_RNCNCNvCs88sW1FLpFbj_14fossil_indexer4main0s_0B5_
FNDA:0,_RNCNvCs88sW1FLpFbj_14fossil_indexer16setup_panic_hook0B3_
FNDA:0,_RNCNvCs88sW1FLpFbj_14fossil_indexer19setup_ctrlc_handler0B3_
FNDA:0,_RNCNvCs88sW1FLpFbj_14fossil_indexer19setup_ctrlc_handlers_0B3_
FNDA:0,_RNCNvCs88sW1FLpFbj_14fossil_indexer4main0B3_
FNDA:0,_RNvCs88sW1FLpFbj_14fossil_indexer16setup_panic_hook
FNDA:0,_RNvCs88sW1FLpFbj_14fossil_indexer18format_error_chain
FNDA:0,_RNvCs88sW1FLpFbj_14fossil_indexer19setup_ctrlc_handler
FNDA:0,_RNvCs88sW1FLpFbj_14fossil_indexer4main
FNDA:0,_RNvCsh9rWqc8ZKZD_14fossil_indexer16setup_panic_hook
FNDA:0,_RNvCsh9rWqc8ZKZD_14fossil_indexer18format_error_chain
FNDA:0,_RNvCsh9rWqc8ZKZD_14fossil_indexer19setup_ctrlc_handler
FNDA:0,_RNvCsh9rWqc8ZKZD_14fossil_indexer4main
FNDA:0,_RNCNCNCNvCsh9rWqc8ZKZD_14fossil_indexer16setup_panic_hook0s0_00B7_
FNDA:0,_RNCNCNvCsh9rWqc8ZKZD_14fossil_indexer16setup_panic_hook00B5_
FNDA:0,_RNCNCNvCsh9rWqc8ZKZD_14fossil_indexer16setup_panic_hook0s0_0B5_
FNDA:0,_RNCNCNvCsh9rWqc8ZKZD_14fossil_indexer16setup_panic_hook0s1_0B5_
FNDA:0,_RNCNCNvCsh9rWqc8ZKZD_14fossil_indexer16setup_panic_hook0s_0B5_
FNDA:0,_RNCNCNvCsh9rWqc8ZKZD_14fossil_indexer4main00B5_
FNDA:0,_RNCNCNvCsh9rWqc8ZKZD_14fossil_indexer4main0s0_0B5_
FNDA:0,_RNCNCNvCsh9rWqc8ZKZD_14fossil_indexer4main0s1_0B5_
FNDA:0,_RNCNCNvCsh9rWqc8ZKZD_14fossil_indexer4main0s2_0B5_
FNDA:0,_RNCNCNvCsh9rWqc8ZKZD_14fossil_indexer4main0s3_0B5_
FNDA:0,_RNCNCNvCsh9rWqc8ZKZD_14fossil_indexer4main0s4_0B5_
FNDA:0,_RNCNCNvCsh9rWqc8ZKZD_14fossil_indexer4main0s_0B5_
FNDA:0,_RNCNvCsh9rWqc8ZKZD_14fossil_indexer16setup_panic_hook0B3_
FNDA:0,_RNCNvCsh9rWqc8ZKZD_14fossil_indexer19setup_ctrlc_handler0B3_
FNDA:0,_RNCNvCsh9rWqc8ZKZD_14fossil_indexer19setup_ctrlc_handlers_0B3_
FNDA:0,_RNCNvCsh9rWqc8ZKZD_14fossil_indexer4main0B3_
FNF:20
FNH:0
DA:14,0
DA:15,0
DA:16,0
DA:17,0
DA:18,0
DA:19,0
DA:21,0
DA:22,0
DA:23,0
DA:24,0
DA:25,0
DA:26,0
DA:28,0
DA:29,0
DA:30,0
DA:31,0
DA:32,0
DA:34,0
DA:36,0
DA:38,0
DA:39,0
DA:40,0
DA:43,0
DA:44,0
DA:45,0
DA:46,0
DA:47,0
DA:48,0
DA:49,0
DA:52,0
DA:54,0
DA:56,0
DA:58,0
DA:59,0
DA:60,0
DA:61,0
DA:63,0
DA:64,0
DA:65,0
DA:67,0
DA:70,0
DA:71,0
DA:72,0
DA:73,0
DA:74,0
DA:75,0
DA:76,0
DA:77,0
DA:78,0
DA:79,0
DA:80,0
DA:81,0
DA:82,0
DA:84,0
DA:85,0
DA:86,0
DA:87,0
DA:88,0
DA:89,0
DA:90,0
DA:91,0
DA:94,0
DA:95,0
DA:96,0
DA:97,0
DA:98,0
DA:101,0
DA:102,0
DA:103,0
DA:104,0
DA:107,0
DA:108,0
DA:111,0
DA:112,0
DA:113,0
DA:114,0
DA:117,0
DA:118,0
DA:119,0
DA:120,0
DA:123,0
DA:125,0
DA:129,0
DA:130,0
DA:131,0
DA:133,0
DA:134,0
DA:135,0
DA:137,0
DA:139,0
DA:140,0
DA:141,0
DA:142,0
DA:144,0
DA:145,0
BRF:0
BRH:0
LF:118
LH:0
end_of_record
SF:/home/ametel/source/fossil-headers-db/src/indexer/quick_service.rs
FN:425,_RNCNCNvMs2_NtNtCscwo6F0TH2eV_17fossil_headers_db7indexer13quick_serviceINtB9_12QuickIndexerNtNtBd_3rpc21EthereumJsonRpcClientE18create_rpc_futures00Bd_
FN:517,_RNCNCNvMs2_NtNtCscwo6F0TH2eV_17fossil_headers_db7indexer13quick_serviceINtB9_12QuickIndexerNtNtBd_3rpc21EthereumJsonRpcClientE19store_block_headers00Bd_
FN:530,_RNCNCNvMs2_NtNtCscwo6F0TH2eV_17fossil_headers_db7indexer13quick_serviceINtB9_12QuickIndexerNtNtBd_3rpc21EthereumJsonRpcClientE19store_block_headers0s0_0Bd_
FN:547,_RNCNCNvMs2_NtNtCscwo6F0TH2eV_17fossil_headers_db7indexer13quick_serviceINtB9_12QuickIndexerNtNtBd_3rpc21EthereumJsonRpcClientE19store_block_headers0s1_0Bd_
FN:548,_RNCNCNvMs2_NtNtCscwo6F0TH2eV_17fossil_headers_db7indexer13quick_serviceINtB9_12QuickIndexerNtNtBd_3rpc21EthereumJsonRpcClientE19store_block_headers0s2_0Bd_
FN:576,_RNCNCNvMs2_NtNtCscwo6F0TH2eV_17fossil_headers_db7indexer13quick_serviceINtB9_12QuickIndexerNtNtBd_3rpc21EthereumJsonRpcClientE19store_block_headers0s3_0Bd_
FN:520,_RNCNCNvMs2_NtNtCscwo6F0TH2eV_17fossil_headers_db7indexer13quick_serviceINtB9_12QuickIndexerNtNtBd_3rpc21EthereumJsonRpcClientE19store_block_headers0s_0Bd_
FN:590,_RNCNCNvMs2_NtNtCscwo6F0TH2eV_17fossil_headers_db7indexer13quick_serviceINtB9_12QuickIndexerNtNtBd_3rpc21EthereumJsonRpcClientE20verify_blocks_stored00Bd_
FN:243,_RNCNCNvMs2_NtNtCscwo6F0TH2eV_17fossil_headers_db7indexer13quick_serviceINtB9_12QuickIndexerNtNtBd_3rpc21EthereumJsonRpcClientE26get_latest_finalized_block00Bd_
FN:367,_RNCNvMs2_NtNtCscwo6F0TH2eV_17fossil_headers_db7indexer13quick_serviceINtB7_12QuickIndexerNtNtBb_3rpc21EthereumJsonRpcClientE15log_and_backoff0Bb_
FN:254,_RNCNvMs2_NtNtCscwo6F0TH2eV_17fossil_headers_db7indexer13quick_serviceINtB7_12QuickIndexerNtNtBb_3rpc21EthereumJsonRpcClientE16index_new_blocks0Bb_
FN:291,_RNCNvMs2_NtNtCscwo6F0TH2eV_17fossil_headers_db7indexer13quick_serviceINtB7_12QuickIndexerNtNtBb_3rpc21EthereumJsonRpcClientE17index_block_range0Bb_
FN:423,_RNCNvMs2_NtNtCscwo6F0TH2eV_17fossil_headers_db7indexer13quick_serviceINtB7_12QuickIndexerNtNtBb_3rpc21EthereumJsonRpcClientE18create_rpc_futures0Bb_
FN:303,_RNCNvMs2_NtNtCscwo6F0TH2eV_17fossil_headers_db7indexer13quick_serviceINtB7_12QuickIndexerNtNtBb_3rpc21EthereumJsonRpcClientE18retry_with_backoff0Bb_
FN:407,_RNCNvMs2_NtNtCscwo6F0TH2eV_17fossil_headers_db7indexer13quick_serviceINtB7_12QuickIndexerNtNtBb_3rpc21EthereumJsonRpcClientE19fetch_block_headers0Bb_
FN:510,_RNCNvMs2_NtNtCscwo6F0TH2eV_17fossil_headers_db7indexer13quick_serviceINtB7_12QuickIndexerNtNtBb_3rpc21EthereumJsonRpcClientE19store_block_headers0Bb_
FN:339,_RNCNvMs2_NtNtCscwo6F0TH2eV_17fossil_headers_db7indexer13quick_serviceINtB7_12QuickIndexerNtNtBb_3rpc21EthereumJsonRpcClientE19try_fetch_and_store0Bb_
FN:276,_RNCNvMs2_NtNtCscwo6F0TH2eV_17fossil_headers_db7indexer13quick_serviceINtB7_12QuickIndexerNtNtBb_3rpc21EthereumJsonRpcClientE19wait_for_new_blocks0Bb_
FN:358,_RNCNvMs2_NtNtCscwo6F0TH2eV_17fossil_headers_db7indexer13quick_serviceINtB7_12QuickIndexerNtNtBb_3rpc21EthereumJsonRpcClientE20log_indexing_success0Bb_
FN:589,_RNCNvMs2_NtNtCscwo6F0TH2eV_17fossil_headers_db7indexer13quick_serviceINtB7_12QuickIndexerNtNtBb_3rpc21EthereumJsonRpcClientE20verify_blocks_stored0Bb_
FN:344,_RNCNvMs2_NtNtCscwo6F0TH2eV_17fossil_headers_db7indexer13quick_serviceINtB7_12QuickIndexerNtNtBb_3rpc21EthereumJsonRpcClientE21get_total_block_count0Bb_
FN:443,_RNCNvMs2_NtNtCscwo6F0TH2eV_17fossil_headers_db7indexer13quick_serviceINtB7_12QuickIndexerNtNtBb_3rpc21EthereumJsonRpcClientE21process_rpc_responses0Bb_
FN:466,_RNCNvMs2_NtNtCscwo6F0TH2eV_17fossil_headers_db7indexer13quick_serviceINtB7_12QuickIndexerNtNtBb_3rpc21EthereumJsonRpcClientE21process_rpc_responsess_0Bb_
FN:380,_RNCNvMs2_NtNtCscwo6F0TH2eV_17fossil_headers_db7indexer13quick_serviceINtB7_12QuickIndexerNtNtBb_3rpc21EthereumJsonRpcClientE22fetch_and_store_blocks0Bb_
FN:225,_RNCNvMs2_NtNtCscwo6F0TH2eV_17fossil_headers_db7indexer13quick_serviceINtB7_12QuickIndexerNtNtBb_3rpc21EthereumJsonRpcClientE22get_last_indexed_block0Bb_
FN:213,_RNCNvMs2_NtNtCscwo6F0TH2eV_17fossil_headers_db7indexer13quick_serviceINtB7_12QuickIndexerNtNtBb_3rpc21EthereumJsonRpcClientE22process_indexing_cycle0Bb_
FN:351,_RNCNvMs2_NtNtCscwo6F0TH2eV_17fossil_headers_db7indexer13quick_serviceINtB7_12QuickIndexerNtNtBb_3rpc21EthereumJsonRpcClientE23get_latest_block_number0Bb_
FN:584,_RNCNvMs2_NtNtCscwo6F0TH2eV_17fossil_headers_db7indexer13quick_serviceINtB7_12QuickIndexerNtNtBb_3rpc21EthereumJsonRpcClientE25apply_exponential_backoff0Bb_
FN:239,_RNCNvMs2_NtNtCscwo6F0TH2eV_17fossil_headers_db7indexer13quick_serviceINtB7_12QuickIndexerNtNtBb_3rpc21EthereumJsonRpcClientE26get_latest_finalized_block0Bb_
FN:199,_RNCNvMs2_NtNtCscwo6F0TH2eV_17fossil_headers_db7indexer13quick_serviceINtB7_12QuickIndexerNtNtBb_3rpc21EthereumJsonRpcClientE5index0Bb_
FN:246,_RNvMs2_NtNtCscwo6F0TH2eV_17fossil_headers_db7indexer13quick_serviceINtB5_12QuickIndexerNtNtB9_3rpc21EthereumJsonRpcClientE14has_new_blocksB9_
FN:367,_RNvMs2_NtNtCscwo6F0TH2eV_17fossil_headers_db7indexer13quick_serviceINtB5_12QuickIndexerNtNtB9_3rpc21EthereumJsonRpcClientE15log_and_backoffB9_
FN:250,_RNvMs2_NtNtCscwo6F0TH2eV_17fossil_headers_db7indexer13quick_serviceINtB5_12QuickIndexerNtNtB9_3rpc21EthereumJsonRpcClientE16index_new_blocksB9_
FN:286,_RNvMs2_NtNtCscwo6F0TH2eV_17fossil_headers_db7indexer13quick_serviceINtB5_12QuickIndexerNtNtB9_3rpc21EthereumJsonRpcClientE17index_block_rangeB9_
FN:413,_RNvMs2_NtNtCscwo6F0TH2eV_17fossil_headers_db7indexer13quick_serviceINtB5_12QuickIndexerNtNtB9_3rpc21EthereumJsonRpcClientE18create_rpc_futuresB9_
FN:297,_RNvMs2_NtNtCscwo6F0TH2eV_17fossil_headers_db7indexer13quick_serviceINtB5_12QuickIndexerNtNtB9_3rpc21EthereumJsonRpcClientE18retry_with_backoffB9_
FN:402,_RNvMs2_NtNtCscwo6F0TH2eV_17fossil_headers_db7indexer13quick_serviceINtB5_12QuickIndexerNtNtB9_3rpc21EthereumJsonRpcClientE19fetch_block_headersB9_
FN:506,_RNvMs2_NtNtCscwo6F0TH2eV_17fossil_headers_db7indexer13quick_serviceINtB5_12QuickIndexerNtNtB9_3rpc21EthereumJsonRpcClientE19store_block_headersB9_
FN:334,_RNvMs2_NtNtCscwo6F0TH2eV_17fossil_headers_db7indexer13quick_serviceINtB5_12QuickIndexerNtNtB9_3rpc21EthereumJsonRpcClientE19try_fetch_and_storeB9_
FN:276,_RNvMs2_NtNtCscwo6F0TH2eV_17fossil_headers_db7indexer13quick_serviceINtB5_12QuickIndexerNtNtB9_3rpc21EthereumJsonRpcClientE19wait_for_new_blocksB9_
FN:358,_RNvMs2_NtNtCscwo6F0TH2eV_17fossil_headers_db7indexer13quick_serviceINtB5_12QuickIndexerNtNtB9_3rpc21EthereumJsonRpcClientE20log_indexing_successB9_
FN:589,_RNvMs2_NtNtCscwo6F0TH2eV_17fossil_headers_db7indexer13quick_serviceINtB5_12QuickIndexerNtNtB9_3rpc21EthereumJsonRpcClientE20verify_blocks_storedB9_
FN:344,_RNvMs2_NtNtCscwo6F0TH2eV_17fossil_headers_db7indexer13quick_serviceINtB5_12QuickIndexerNtNtB9_3rpc21EthereumJsonRpcClientE21get_total_block_countB9_
FN:438,_RNvMs2_NtNtCscwo6F0TH2eV_17fossil_headers_db7indexer13quick_serviceINtB5_12QuickIndexerNtNtB9_3rpc21EthereumJsonRpcClientE21process_rpc_responsesB9_
FN:265,_RNvMs2_NtNtCscwo6F0TH2eV_17fossil_headers_db7indexer13quick_serviceINtB5_12QuickIndexerNtNtB9_3rpc21EthereumJsonRpcClientE22calculate_ending_blockB9_
FN:375,_RNvMs2_NtNtCscwo6F0TH2eV_17fossil_headers_db7indexer13quick_serviceINtB5_12QuickIndexerNtNtB9_3rpc21EthereumJsonRpcClientE22fetch_and_store_blocksB9_
FN:225,_RNvMs2_NtNtCscwo6F0TH2eV_17fossil_headers_db7indexer13quick_serviceINtB5_12QuickIndexerNtNtB9_3rpc21EthereumJsonRpcClientE22get_last_indexed_blockB9_
FN:213,_RNvMs2_NtNtCscwo6F0TH2eV_17fossil_headers_db7indexer13quick_serviceINtB5_12QuickIndexerNtNtB9_3rpc21EthereumJsonRpcClientE22process_indexing_cycleB9_
FN:351,_RNvMs2_NtNtCscwo6F0TH2eV_17fossil_headers_db7indexer13quick_serviceINtB5_12QuickIndexerNtNtB9_3rpc21EthereumJsonRpcClientE23get_latest_block_numberB9_
FN:325,_RNvMs2_NtNtCscwo6F0TH2eV_17fossil_headers_db7indexer13quick_serviceINtB5_12QuickIndexerNtNtB9_3rpc21EthereumJsonRpcClientE24check_termination_signalB9_
FN:584,_RNvMs2_NtNtCscwo6F0TH2eV_17fossil_headers_db7indexer13quick_serviceINtB5_12QuickIndexerNtNtB9_3rpc21EthereumJsonRpcClientE25apply_exponential_backoffB9_
FN:239,_RNvMs2_NtNtCscwo6F0TH2eV_17fossil_headers_db7indexer13quick_serviceINtB5_12QuickIndexerNtNtB9_3rpc21EthereumJsonRpcClientE26get_latest_finalized_blockB9_
FN:185,_RNvMs2_NtNtCscwo6F0TH2eV_17fossil_headers_db7indexer13quick_serviceINtB5_12QuickIndexerNtNtB9_3rpc21EthereumJsonRpcClientE3newB9_
FN:199,_RNvMs2_NtNtCscwo6F0TH2eV_17fossil_headers_db7indexer13quick_serviceINtB5_12QuickIndexerNtNtB9_3rpc21EthereumJsonRpcClientE5indexB9_
FN:37,_RNvMNtNtCscwo6F0TH2eV_17fossil_headers_db7indexer13quick_serviceNtB2_16QuickIndexConfig7builder
FN:100,_RNvMs0_NtNtCscwo6F0TH2eV_17fossil_headers_db7indexer13quick_serviceNtB5_23QuickIndexConfigBuilder11max_retries
FN:112,_RNvMs0_NtNtCscwo6F0TH2eV_17fossil_headers_db7indexer13quick_serviceNtB5_23QuickIndexConfigBuilder11rpc_timeout
FN:75,_RNvMs0_NtNtCscwo6F0TH2eV_17fossil_headers_db7indexer13quick_serviceNtB5_23QuickIndexConfigBuilder12fast_polling
FN:83,_RNvMs0_NtNtCscwo6F0TH2eV_17fossil_headers_db7indexer13quick_serviceNtB5_23QuickIndexConfigBuilder12slow_polling
FN:106,_RNvMs0_NtNtCscwo6F0TH2eV_17fossil_headers_db7indexer13quick_serviceNtB5_23QuickIndexConfigBuilder13poll_interval
FN:118,_RNvMs0_NtNtCscwo6F0TH2eV_17fossil_headers_db7indexer13quick_serviceNtB5_23QuickIndexConfigBuilder16index_batch_size
FN:124,_RNvMs0_NtNtCscwo6F0TH2eV_17fossil_headers_db7indexer13quick_serviceNtB5_23QuickIndexConfigBuilder16should_index_txs
FN:64,_RNvMs0_NtNtCscwo6F0TH2eV_17fossil_headers_db7indexer13quick_serviceNtB5_23QuickIndexConfigBuilder3new
FN:129,_RNvMs0_NtNtCscwo6F0TH2eV_17fossil_headers_db7indexer13quick_serviceNtB5_23QuickIndexConfigBuilder5build
FN:91,_RNvMs0_NtNtCscwo6F0TH2eV_17fossil_headers_db7indexer13quick_serviceNtB5_23QuickIndexConfigBuilder7testing
FN:169,_RNvXs1_NtNtCscwo6F0TH2eV_17fossil_headers_db7indexer13quick_serviceNtB5_23QuickIndexConfigBuilderNtNtCs66KPHxksi63_4core7default7Default7default
FN:43,_RNvXs_NtNtCscwo6F0TH2eV_17fossil_headers_db7indexer13quick_serviceNtB4_16QuickIndexConfigNtNtCs66KPHxksi63_4core7default7Default7default
FN:37,_RNvMNtNtCs5Xp1JEPGtUd_17fossil_headers_db7indexer13quick_serviceNtB2_16QuickIndexConfig7builder
FN:100,_RNvMs0_NtNtCs5Xp1JEPGtUd_17fossil_headers_db7indexer13quick_serviceNtB5_23QuickIndexConfigBuilder11max_retries
FN:112,_RNvMs0_NtNtCs5Xp1JEPGtUd_17fossil_headers_db7indexer13quick_serviceNtB5_23QuickIndexConfigBuilder11rpc_timeout
FN:75,_RNvMs0_NtNtCs5Xp1JEPGtUd_17fossil_headers_db7indexer13quick_serviceNtB5_23QuickIndexConfigBuilder12fast_polling
FN:83,_RNvMs0_NtNtCs5Xp1JEPGtUd_17fossil_headers_db7indexer13quick_serviceNtB5_23QuickIndexConfigBuilder12slow_polling
FN:106,_RNvMs0_NtNtCs5Xp1JEPGtUd_17fossil_headers_db7indexer13quick_serviceNtB5_23QuickIndexConfigBuilder13poll_interval
FN:118,_RNvMs0_NtNtCs5Xp1JEPGtUd_17fossil_headers_db7indexer13quick_serviceNtB5_23QuickIndexConfigBuilder16index_batch_size
FN:124,_RNvMs0_NtNtCs5Xp1JEPGtUd_17fossil_headers_db7indexer13quick_serviceNtB5_23QuickIndexConfigBuilder16should_index_txs
FN:64,_RNvMs0_NtNtCs5Xp1JEPGtUd_17fossil_headers_db7indexer13quick_serviceNtB5_23QuickIndexConfigBuilder3new
FN:129,_RNvMs0_NtNtCs5Xp1JEPGtUd_17fossil_headers_db7indexer13quick_serviceNtB5_23QuickIndexConfigBuilder5build
FN:91,_RNvMs0_NtNtCs5Xp1JEPGtUd_17fossil_headers_db7indexer13quick_serviceNtB5_23QuickIndexConfigBuilder7testing
FN:169,_RNvXs1_NtNtCs5Xp1JEPGtUd_17fossil_headers_db7indexer13quick_serviceNtB5_23QuickIndexConfigBuilderNtNtCs66KPHxksi63_4core7default7Default7default
FN:425,_RNCNCNvMs2_NtNtCs5Xp1JEPGtUd_17fossil_headers_db7indexer13quick_serviceINtB9_12QuickIndexerNtNtBb_10test_utils15MockRpcProviderE18create_rpc_futures00Bd_
FN:517,_RNCNCNvMs2_NtNtCs5Xp1JEPGtUd_17fossil_headers_db7indexer13quick_serviceINtB9_12QuickIndexerNtNtBb_10test_utils15MockRpcProviderE19store_block_headers00Bd_
FN:530,_RNCNCNvMs2_NtNtCs5Xp1JEPGtUd_17fossil_headers_db7indexer13quick_serviceINtB9_12QuickIndexerNtNtBb_10test_utils15MockRpcProviderE19store_block_headers0s0_0Bd_
FN:547,_RNCNCNvMs2_NtNtCs5Xp1JEPGtUd_17fossil_headers_db7indexer13quick_serviceINtB9_12QuickIndexerNtNtBb_10test_utils15MockRpcProviderE19store_block_headers0s1_0Bd_
FN:548,_RNCNCNvMs2_NtNtCs5Xp1JEPGtUd_17fossil_headers_db7indexer13quick_serviceINtB9_12QuickIndexerNtNtBb_10test_utils15MockRpcProviderE19store_block_headers0s2_0Bd_
FN:576,_RNCNCNvMs2_NtNtCs5Xp1JEPGtUd_17fossil_headers_db7indexer13quick_serviceINtB9_12QuickIndexerNtNtBb_10test_utils15MockRpcProviderE19store_block_headers0s3_0Bd_
FN:520,_RNCNCNvMs2_NtNtCs5Xp1JEPGtUd_17fossil_headers_db7indexer13quick_serviceINtB9_12QuickIndexerNtNtBb_10test_utils15MockRpcProviderE19store_block_headers0s_0Bd_
FN:590,_RNCNCNvMs2_NtNtCs5Xp1JEPGtUd_17fossil_headers_db7indexer13quick_serviceINtB9_12QuickIndexerNtNtBb_10test_utils15MockRpcProviderE20verify_blocks_stored00Bd_
FN:243,_RNCNCNvMs2_NtNtCs5Xp1JEPGtUd_17fossil_headers_db7indexer13quick_serviceINtB9_12QuickIndexerNtNtBb_10test_utils15MockRpcProviderE26get_latest_finalized_block00Bd_
FN:367,_RNCNvMs2_NtNtCs5Xp1JEPGtUd_17fossil_headers_db7indexer13quick_serviceINtB7_12QuickIndexerNtNtB9_10test_utils15MockRpcProviderE15log_and_backoff0Bb_
FN:254,_RNCNvMs2_NtNtCs5Xp1JEPGtUd_17fossil_headers_db7indexer13quick_serviceINtB7_12QuickIndexerNtNtB9_10test_utils15MockRpcProviderE16index_new_blocks0Bb_
FN:291,_RNCNvMs2_NtNtCs5Xp1JEPGtUd_17fossil_headers_db7indexer13quick_serviceINtB7_12QuickIndexerNtNtB9_10test_utils15MockRpcProviderE17index_block_range0Bb_
FN:423,_RNCNvMs2_NtNtCs5Xp1JEPGtUd_17fossil_headers_db7indexer13quick_serviceINtB7_12QuickIndexerNtNtB9_10test_utils15MockRpcProviderE18create_rpc_futures0Bb_
FN:303,_RNCNvMs2_NtNtCs5Xp1JEPGtUd_17fossil_headers_db7indexer13quick_serviceINtB7_12QuickIndexerNtNtB9_10test_utils15MockRpcProviderE18retry_with_backoff0Bb_
FN:407,_RNCNvMs2_NtNtCs5Xp1JEPGtUd_17fossil_headers_db7indexer13quick_serviceINtB7_12QuickIndexerNtNtB9_10test_utils15MockRpcProviderE19fetch_block_headers0Bb_
FN:510,_RNCNvMs2_NtNtCs5Xp1JEPGtUd_17fossil_headers_db7indexer13quick_serviceINtB7_12QuickIndexerNtNtB9_10test_utils15MockRpcProviderE19store_block_headers0Bb_
FN:339,_RNCNvMs2_NtNtCs5Xp1JEPGtUd_17fossil_headers_db7indexer13quick_serviceINtB7_12QuickIndexerNtNtB9_10test_utils15MockRpcProviderE19try_fetch_and_store0Bb_
FN:276,_RNCNvMs2_NtNtCs5Xp1JEPGtUd_17fossil_headers_db7indexer13quick_serviceINtB7_12QuickIndexerNtNtB9_10test_utils15MockRpcProviderE19wait_for_new_blocks0Bb_
FN:358,_RNCNvMs2_NtNtCs5Xp1JEPGtUd_17fossil_headers_db7indexer13quick_serviceINtB7_12QuickIndexerNtNtB9_10test_utils15MockRpcProviderE20log_indexing_success0Bb_
FN:589,_RNCNvMs2_NtNtCs5Xp1JEPGtUd_17fossil_headers_db7indexer13quick_serviceINtB7_12QuickIndexerNtNtB9_10test_utils15MockRpcProviderE20verify_blocks_stored0Bb_
FN:344,_RNCNvMs2_NtNtCs5Xp1JEPGtUd_17fossil_headers_db7indexer13quick_serviceINtB7_12QuickIndexerNtNtB9_10test_utils15MockRpcProviderE21get_total_block_count0Bb_
FN:443,_RNCNvMs2_NtNtCs5Xp1JEPGtUd_17fossil_headers_db7indexer13quick_serviceINtB7_12QuickIndexerNtNtB9_10test_utils15MockRpcProviderE21process_rpc_responses0Bb_
FN:466,_RNCNvMs2_NtNtCs5Xp1JEPGtUd_17fossil_headers_db7indexer13quick_serviceINtB7_12QuickIndexerNtNtB9_10test_utils15MockRpcProviderE21process_rpc_responsess_0Bb_
FN:380,_RNCNvMs2_NtNtCs5Xp1JEPGtUd_17fossil_headers_db7indexer13quick_serviceINtB7_12QuickIndexerNtNtB9_10test_utils15MockRpcProviderE22fetch_and_store_blocks0Bb_
FN:225,_RNCNvMs2_NtNtCs5Xp1JEPGtUd_17fossil_headers_db7indexer13quick_serviceINtB7_12QuickIndexerNtNtB9_10test_utils15MockRpcProviderE22get_last_indexed_block0Bb_
FN:213,_RNCNvMs2_NtNtCs5Xp1JEPGtUd_17fossil_headers_db7indexer13quick_serviceINtB7_12QuickIndexerNtNtB9_10test_utils15MockRpcProviderE22process_indexing_cycle0Bb_
FN:351,_RNCNvMs2_NtNtCs5Xp1JEPGtUd_17fossil_headers_db7indexer13quick_serviceINtB7_12QuickIndexerNtNtB9_10test_utils15MockRpcProviderE23get_latest_block_number0Bb_
FN:584,_RNCNvMs2_NtNtCs5Xp1JEPGtUd_17fossil_headers_db7indexer13quick_serviceINtB7_12QuickIndexerNtNtB9_10test_utils15MockRpcProviderE25apply_exponential_backoff0Bb_
FN:239,_RNCNvMs2_NtNtCs5Xp1JEPGtUd_17fossil_headers_db7indexer13quick_serviceINtB7_12QuickIndexerNtNtB9_10test_utils15MockRpcProviderE26get_latest_finalized_block0Bb_
FN:199,_RNCNvMs2_NtNtCs5Xp1JEPGtUd_17fossil_headers_db7indexer13quick_serviceINtB7_12QuickIndexerNtNtB9_10test_utils15MockRpcProviderE5index0Bb_
FN:246,_RNvMs2_NtNtCs5Xp1JEPGtUd_17fossil_headers_db7indexer13quick_serviceINtB5_12QuickIndexerNtNtB7_10test_utils15MockRpcProviderE14has_new_blocksB9_
FN:367,_RNvMs2_NtNtCs5Xp1JEPGtUd_17fossil_headers_db7indexer13quick_serviceINtB5_12QuickIndexerNtNtB7_10test_utils15MockRpcProviderE15log_and_backoffB9_
FN:250,_RNvMs2_NtNtCs5Xp1JEPGtUd_17fossil_headers_db7indexer13quick_serviceINtB5_12QuickIndexerNtNtB7_10test_utils15MockRpcProviderE16index_new_blocksB9_
FN:286,_RNvMs2_NtNtCs5Xp1JEPGtUd_17fossil_headers_db7indexer13quick_serviceINtB5_12QuickIndexerNtNtB7_10test_utils15MockRpcProviderE17index_block_rangeB9_
FN:413,_RNvMs2_NtNtCs5Xp1JEPGtUd_17fossil_headers_db7indexer13quick_serviceINtB5_12QuickIndexerNtNtB7_10test_utils15MockRpcProviderE18create_rpc_futuresB9_
FN:297,_RNvMs2_NtNtCs5Xp1JEPGtUd_17fossil_headers_db7indexer13quick_serviceINtB5_12QuickIndexerNtNtB7_10test_utils15MockRpcProviderE18retry_with_backoffB9_
FN:402,_RNvMs2_NtNtCs5Xp1JEPGtUd_17fossil_headers_db7indexer13quick_serviceINtB5_12QuickIndexerNtNtB7_10test_utils15MockRpcProviderE19fetch_block_headersB9_
FN:506,_RNvMs2_NtNtCs5Xp1JEPGtUd_17fossil_headers_db7indexer13quick_serviceINtB5_12QuickIndexerNtNtB7_10test_utils15MockRpcProviderE19store_block_headersB9_
FN:334,_RNvMs2_NtNtCs5Xp1JEPGtUd_17fossil_headers_db7indexer13quick_serviceINtB5_12QuickIndexerNtNtB7_10test_utils15MockRpcProviderE19try_fetch_and_storeB9_
FN:276,_RNvMs2_NtNtCs5Xp1JEPGtUd_17fossil_headers_db7indexer13quick_serviceINtB5_12QuickIndexerNtNtB7_10test_utils15MockRpcProviderE19wait_for_new_blocksB9_
FN:358,_RNvMs2_NtNtCs5Xp1JEPGtUd_17fossil_headers_db7indexer13quick_serviceINtB5_12QuickIndexerNtNtB7_10test_utils15MockRpcProviderE20log_indexing_successB9_
FN:589,_RNvMs2_NtNtCs5Xp1JEPGtUd_17fossil_headers_db7indexer13quick_serviceINtB5_12QuickIndexerNtNtB7_10test_utils15MockRpcProviderE20verify_blocks_storedB9_
FN:344,_RNvMs2_NtNtCs5Xp1JEPGtUd_17fossil_headers_db7indexer13quick_serviceINtB5_12QuickIndexerNtNtB7_10test_utils15MockRpcProviderE21get_total_block_countB9_
FN:438,_RNvMs2_NtNtCs5Xp1JEPGtUd_17fossil_headers_db7indexer13quick_serviceINtB5_12QuickIndexerNtNtB7_10test_utils15MockRpcProviderE21process_rpc_responsesB9_
FN:265,_RNvMs2_NtNtCs5Xp1JEPGtUd_17fossil_headers_db7indexer13quick_serviceINtB5_12QuickIndexerNtNtB7_10test_utils15MockRpcProviderE22calculate_ending_blockB9_
FN:375,_RNvMs2_NtNtCs5Xp1JEPGtUd_17fossil_headers_db7indexer13quick_serviceINtB5_12QuickIndexerNtNtB7_10test_utils15MockRpcProviderE22fetch_and_store_blocksB9_
FN:225,_RNvMs2_NtNtCs5Xp1JEPGtUd_17fossil_headers_db7indexer13quick_serviceINtB5_12QuickIndexerNtNtB7_10test_utils15MockRpcProviderE22get_last_indexed_blockB9_
FN:213,_RNvMs2_NtNtCs5Xp1JEPGtUd_17fossil_headers_db7indexer13quick_serviceINtB5_12QuickIndexerNtNtB7_10test_utils15MockRpcProviderE22process_indexing_cycleB9_
FN:351,_RNvMs2_NtNtCs5Xp1JEPGtUd_17fossil_headers_db7indexer13quick_serviceINtB5_12QuickIndexerNtNtB7_10test_utils15MockRpcProviderE23get_latest_block_numberB9_
FN:325,_RNvMs2_NtNtCs5Xp1JEPGtUd_17fossil_headers_db7indexer13quick_serviceINtB5_12QuickIndexerNtNtB7_10test_utils15MockRpcProviderE24check_termination_signalB9_
FN:584,_RNvMs2_NtNtCs5Xp1JEPGtUd_17fossil_headers_db7indexer13quick_serviceINtB5_12QuickIndexerNtNtB7_10test_utils15MockRpcProviderE25apply_exponential_backoffB9_
FN:239,_RNvMs2_NtNtCs5Xp1JEPGtUd_17fossil_headers_db7indexer13quick_serviceINtB5_12QuickIndexerNtNtB7_10test_utils15MockRpcProviderE26get_latest_finalized_blockB9_
FN:185,_RNvMs2_NtNtCs5Xp1JEPGtUd_17fossil_headers_db7indexer13quick_serviceINtB5_12QuickIndexerNtNtB7_10test_utils15MockRpcProviderE3newB9_
FN:199,_RNvMs2_NtNtCs5Xp1JEPGtUd_17fossil_headers_db7indexer13quick_serviceINtB5_12QuickIndexerNtNtB7_10test_utils15MockRpcProviderE5indexB9_
FN:43,_RNvXs_NtNtCs5Xp1JEPGtUd_17fossil_headers_db7indexer13quick_serviceNtB4_16QuickIndexConfigNtNtCs66KPHxksi63_4core7default7Default7default
FN:659,_RNvNtNtNtCs5Xp1JEPGtUd_17fossil_headers_db7indexer13quick_service5tests22get_fixtures_for_tests
FN:781,_RNCNCINvNCNvNtNtNtCs5Xp1JEPGtUd_17fossil_headers_db7indexer13quick_service5testss_24test_quick_index_with_tx024test_quick_index_with_txNtNtCs3fCLpenLmI3_13sqlx_postgres7options16PgConnectOptionsE00Bg_
FN:721,_RNCNCINvNCNvNtNtNtCs5Xp1JEPGtUd_17fossil_headers_db7indexer13quick_service5testss_37test_quick_index_default_headers_only037test_quick_index_default_headers_onlyNtNtCs3fCLpenLmI3_13sqlx_postgres7options16PgConnectOptionsE00Bg_
FN:859,_RNCNCINvNCNvNtNtNtCs5Xp1JEPGtUd_17fossil_headers_db7indexer13quick_service5testss_60test_quick_index_always_index_for_latest_blocknumber_with_tx060test_quick_index_always_index_for_latest_blocknumber_with_txNtNtCs3fCLpenLmI3_13sqlx_postgres7options16PgConnectOptionsE00Bg_
FN:659,_RNCNvNtNtNtCs5Xp1JEPGtUd_17fossil_headers_db7indexer13quick_service5tests22get_fixtures_for_tests0B9_
FNDA:0,_RNCNCNvMs2_NtNtCscwo6F0TH2eV_17fossil_headers_db7indexer13quick_serviceINtB9_12QuickIndexerNtNtBd_3rpc21EthereumJsonRpcClientE18create_rpc_futures00Bd_
FNDA:0,_RNCNCNvMs2_NtNtCscwo6F0TH2eV_17fossil_headers_db7indexer13quick_serviceINtB9_12QuickIndexerNtNtBd_3rpc21EthereumJsonRpcClientE19store_block_headers00Bd_
FNDA:0,_RNCNCNvMs2_NtNtCscwo6F0TH2eV_17fossil_headers_db7indexer13quick_serviceINtB9_12QuickIndexerNtNtBd_3rpc21EthereumJsonRpcClientE19store_block_headers0s0_0Bd_
FNDA:0,_RNCNCNvMs2_NtNtCscwo6F0TH2eV_17fossil_headers_db7indexer13quick_serviceINtB9_12QuickIndexerNtNtBd_3rpc21EthereumJsonRpcClientE19store_block_headers0s1_0Bd_
FNDA:0,_RNCNCNvMs2_NtNtCscwo6F0TH2eV_17fossil_headers_db7indexer13quick_serviceINtB9_12QuickIndexerNtNtBd_3rpc21EthereumJsonRpcClientE19store_block_headers0s2_0Bd_
FNDA:0,_RNCNCNvMs2_NtNtCscwo6F0TH2eV_17fossil_headers_db7indexer13quick_serviceINtB9_12QuickIndexerNtNtBd_3rpc21EthereumJsonRpcClientE19store_block_headers0s3_0Bd_
FNDA:0,_RNCNCNvMs2_NtNtCscwo6F0TH2eV_17fossil_headers_db7indexer13quick_serviceINtB9_12QuickIndexerNtNtBd_3rpc21EthereumJsonRpcClientE19store_block_headers0s_0Bd_
FNDA:0,_RNCNCNvMs2_NtNtCscwo6F0TH2eV_17fossil_headers_db7indexer13quick_serviceINtB9_12QuickIndexerNtNtBd_3rpc21EthereumJsonRpcClientE20verify_blocks_stored00Bd_
FNDA:0,_RNCNCNvMs2_NtNtCscwo6F0TH2eV_17fossil_headers_db7indexer13quick_serviceINtB9_12QuickIndexerNtNtBd_3rpc21EthereumJsonRpcClientE26get_latest_finalized_block00Bd_
FNDA:0,_RNCNvMs2_NtNtCscwo6F0TH2eV_17fossil_headers_db7indexer13quick_serviceINtB7_12QuickIndexerNtNtBb_3rpc21EthereumJsonRpcClientE15log_and_backoff0Bb_
FNDA:0,_RNCNvMs2_NtNtCscwo6F0TH2eV_17fossil_headers_db7indexer13quick_serviceINtB7_12QuickIndexerNtNtBb_3rpc21EthereumJsonRpcClientE16index_new_blocks0Bb_
FNDA:0,_RNCNvMs2_NtNtCscwo6F0TH2eV_17fossil_headers_db7indexer13quick_serviceINtB7_12QuickIndexerNtNtBb_3rpc21EthereumJsonRpcClientE17index_block_range0Bb_
FNDA:0,_RNCNvMs2_NtNtCscwo6F0TH2eV_17fossil_headers_db7indexer13quick_serviceINtB7_12QuickIndexerNtNtBb_3rpc21EthereumJsonRpcClientE18create_rpc_futures0Bb_
FNDA:0,_RNCNvMs2_NtNtCscwo6F0TH2eV_17fossil_headers_db7indexer13quick_serviceINtB7_12QuickIndexerNtNtBb_3rpc21EthereumJsonRpcClientE18retry_with_backoff0Bb_
FNDA:0,_RNCNvMs2_NtNtCscwo6F0TH2eV_17fossil_headers_db7indexer13quick_serviceINtB7_12QuickIndexerNtNtBb_3rpc21EthereumJsonRpcClientE19fetch_block_headers0Bb_
FNDA:0,_RNCNvMs2_NtNtCscwo6F0TH2eV_17fossil_headers_db7indexer13quick_serviceINtB7_12QuickIndexerNtNtBb_3rpc21EthereumJsonRpcClientE19store_block_headers0Bb_
FNDA:0,_RNCNvMs2_NtNtCscwo6F0TH2eV_17fossil_headers_db7indexer13quick_serviceINtB7_12QuickIndexerNtNtBb_3rpc21EthereumJsonRpcClientE19try_fetch_and_store0Bb_
FNDA:11,_RNCNvMs2_NtNtCscwo6F0TH2eV_17fossil_headers_db7indexer13quick_serviceINtB7_12QuickIndexerNtNtBb_3rpc21EthereumJsonRpcClientE19wait_for_new_blocks0Bb_
FNDA:0,_RNCNvMs2_NtNtCscwo6F0TH2eV_17fossil_headers_db7indexer13quick_serviceINtB7_12QuickIndexerNtNtBb_3rpc21EthereumJsonRpcClientE20log_indexing_success0Bb_
FNDA:0,_RNCNvMs2_NtNtCscwo6F0TH2eV_17fossil_headers_db7indexer13quick_serviceINtB7_12QuickIndexerNtNtBb_3rpc21EthereumJsonRpcClientE20verify_blocks_stored0Bb_
FNDA:0,_RNCNvMs2_NtNtCscwo6F0TH2eV_17fossil_headers_db7indexer13quick_serviceINtB7_12QuickIndexerNtNtBb_3rpc21EthereumJsonRpcClientE21get_total_block_count0Bb_
FNDA:0,_RNCNvMs2_NtNtCscwo6F0TH2eV_17fossil_headers_db7indexer13quick_serviceINtB7_12QuickIndexerNtNtBb_3rpc21EthereumJsonRpcClientE21process_rpc_responses0Bb_
FNDA:0,_RNCNvMs2_NtNtCscwo6F0TH2eV_17fossil_headers_db7indexer13quick_serviceINtB7_12QuickIndexerNtNtBb_3rpc21EthereumJsonRpcClientE21process_rpc_responsess_0Bb_
FNDA:0,_RNCNvMs2_NtNtCscwo6F0TH2eV_17fossil_headers_db7indexer13quick_serviceINtB7_12QuickIndexerNtNtBb_3rpc21EthereumJsonRpcClientE22fetch_and_store_blocks0Bb_
FNDA:14,_RNCNvMs2_NtNtCscwo6F0TH2eV_17fossil_headers_db7indexer13quick_serviceINtB7_12QuickIndexerNtNtBb_3rpc21EthereumJsonRpcClientE22get_last_indexed_block0Bb_
FNDA:14,_RNCNvMs2_NtNtCscwo6F0TH2eV_17fossil_headers_db7indexer13quick_serviceINtB7_12QuickIndexerNtNtBb_3rpc21EthereumJsonRpcClientE22process_indexing_cycle0Bb_
FNDA:0,_RNCNvMs2_NtNtCscwo6F0TH2eV_17fossil_headers_db7indexer13quick_serviceINtB7_12QuickIndexerNtNtBb_3rpc21EthereumJsonRpcClientE23get_latest_block_number0Bb_
FNDA:0,_RNCNvMs2_NtNtCscwo6F0TH2eV_17fossil_headers_db7indexer13quick_serviceINtB7_12QuickIndexerNtNtBb_3rpc21EthereumJsonRpcClientE25apply_exponential_backoff0Bb_
FNDA:11,_RNCNvMs2_NtNtCscwo6F0TH2eV_17fossil_headers_db7indexer13quick_serviceINtB7_12QuickIndexerNtNtBb_3rpc21EthereumJsonRpcClientE26get_latest_finalized_block0Bb_
FNDA:3,_RNCNvMs2_NtNtCscwo6F0TH2eV_17fossil_headers_db7indexer13quick_serviceINtB7_12QuickIndexerNtNtBb_3rpc21EthereumJsonRpcClientE5index0Bb_
FNDA:11,_RNvMs2_NtNtCscwo6F0TH2eV_17fossil_headers_db7indexer13quick_serviceINtB5_12QuickIndexerNtNtB9_3rpc21EthereumJsonRpcClientE14has_new_blocksB9_
FNDA:0,_RNvMs2_NtNtCscwo6F0TH2eV_17fossil_headers_db7indexer13quick_serviceINtB5_12QuickIndexerNtNtB9_3rpc21EthereumJsonRpcClientE15log_and_backoffB9_
FNDA:0,_RNvMs2_NtNtCscwo6F0TH2eV_17fossil_headers_db7indexer13quick_serviceINtB5_12QuickIndexerNtNtB9_3rpc21EthereumJsonRpcClientE16index_new_blocksB9_
FNDA:0,_RNvMs2_NtNtCscwo6F0TH2eV_17fossil_headers_db7indexer13quick_serviceINtB5_12QuickIndexerNtNtB9_3rpc21EthereumJsonRpcClientE17index_block_rangeB9_
FNDA:0,_RNvMs2_NtNtCscwo6F0TH2eV_17fossil_headers_db7indexer13quick_serviceINtB5_12QuickIndexerNtNtB9_3rpc21EthereumJsonRpcClientE18create_rpc_futuresB9_
FNDA:0,_RNvMs2_NtNtCscwo6F0TH2eV_17fossil_headers_db7indexer13quick_serviceINtB5_12QuickIndexerNtNtB9_3rpc21EthereumJsonRpcClientE18retry_with_backoffB9_
FNDA:0,_RNvMs2_NtNtCscwo6F0TH2eV_17fossil_headers_db7indexer13quick_serviceINtB5_12QuickIndexerNtNtB9_3rpc21EthereumJsonRpcClientE19fetch_block_headersB9_
FNDA:0,_RNvMs2_NtNtCscwo6F0TH2eV_17fossil_headers_db7indexer13quick_serviceINtB5_12QuickIndexerNtNtB9_3rpc21EthereumJsonRpcClientE19store_block_headersB9_
FNDA:0,_RNvMs2_NtNtCscwo6F0TH2eV_17fossil_headers_db7indexer13quick_serviceINtB5_12QuickIndexerNtNtB9_3rpc21EthereumJsonRpcClientE19try_fetch_and_storeB9_
FNDA:11,_RNvMs2_NtNtCscwo6F0TH2eV_17fossil_headers_db7indexer13quick_serviceINtB5_12QuickIndexerNtNtB9_3rpc21EthereumJsonRpcClientE19wait_for_new_blocksB9_
FNDA:0,_RNvMs2_NtNtCscwo6F0TH2eV_17fossil_headers_db7indexer13quick_serviceINtB5_12QuickIndexerNtNtB9_3rpc21EthereumJsonRpcClientE20log_indexing_successB9_
FNDA:0,_RNvMs2_NtNtCscwo6F0TH2eV_17fossil_headers_db7indexer13quick_serviceINtB5_12QuickIndexerNtNtB9_3rpc21EthereumJsonRpcClientE20verify_blocks_storedB9_
FNDA:0,_RNvMs2_NtNtCscwo6F0TH2eV_17fossil_headers_db7indexer13quick_serviceINtB5_12QuickIndexerNtNtB9_3rpc21EthereumJsonRpcClientE21get_total_block_countB9_
FNDA:0,_RNvMs2_NtNtCscwo6F0TH2eV_17fossil_headers_db7indexer13quick_serviceINtB5_12QuickIndexerNtNtB9_3rpc21EthereumJsonRpcClientE21process_rpc_responsesB9_
FNDA:0,_RNvMs2_NtNtCscwo6F0TH2eV_17fossil_headers_db7indexer13quick_serviceINtB5_12QuickIndexerNtNtB9_3rpc21EthereumJsonRpcClientE22calculate_ending_blockB9_
FNDA:0,_RNvMs2_NtNtCscwo6F0TH2eV_17fossil_headers_db7indexer13quick_serviceINtB5_12QuickIndexerNtNtB9_3rpc21EthereumJsonRpcClientE22fetch_and_store_blocksB9_
FNDA:14,_RNvMs2_NtNtCscwo6F0TH2eV_17fossil_headers_db7indexer13quick_serviceINtB5_12QuickIndexerNtNtB9_3rpc21EthereumJsonRpcClientE22get_last_indexed_blockB9_
FNDA:14,_RNvMs2_NtNtCscwo6F0TH2eV_17fossil_headers_db7indexer13quick_serviceINtB5_12QuickIndexerNtNtB9_3rpc21EthereumJsonRpcClientE22process_indexing_cycleB9_
FNDA:0,_RNvMs2_NtNtCscwo6F0TH2eV_17fossil_headers_db7indexer13quick_serviceINtB5_12QuickIndexerNtNtB9_3rpc21EthereumJsonRpcClientE23get_latest_block_numberB9_
FNDA:0,_RNvMs2_NtNtCscwo6F0TH2eV_17fossil_headers_db7indexer13quick_serviceINtB5_12QuickIndexerNtNtB9_3rpc21EthereumJsonRpcClientE24check_termination_signalB9_
FNDA:0,_RNvMs2_NtNtCscwo6F0TH2eV_17fossil_headers_db7indexer13quick_serviceINtB5_12QuickIndexerNtNtB9_3rpc21EthereumJsonRpcClientE25apply_exponential_backoffB9_
FNDA:11,_RNvMs2_NtNtCscwo6F0TH2eV_17fossil_headers_db7indexer13quick_serviceINtB5_12QuickIndexerNtNtB9_3rpc21EthereumJsonRpcClientE26get_latest_finalized_blockB9_
FNDA:3,_RNvMs2_NtNtCscwo6F0TH2eV_17fossil_headers_db7indexer13quick_serviceINtB5_12QuickIndexerNtNtB9_3rpc21EthereumJsonRpcClientE3newB9_
FNDA:3,_RNvMs2_NtNtCscwo6F0TH2eV_17fossil_headers_db7indexer13quick_serviceINtB5_12QuickIndexerNtNtB9_3rpc21EthereumJsonRpcClientE5indexB9_
FNDA:3,_RNvMNtNtCscwo6F0TH2eV_17fossil_headers_db7indexer13quick_serviceNtB2_16QuickIndexConfig7builder
FNDA:3,_RNvMs0_NtNtCscwo6F0TH2eV_17fossil_headers_db7indexer13quick_serviceNtB5_23QuickIndexConfigBuilder11max_retries
FNDA:3,_RNvMs0_NtNtCscwo6F0TH2eV_17fossil_headers_db7indexer13quick_serviceNtB5_23QuickIndexConfigBuilder11rpc_timeout
FNDA:0,_RNvMs0_NtNtCscwo6F0TH2eV_17fossil_headers_db7indexer13quick_serviceNtB5_23QuickIndexConfigBuilder12fast_polling
FNDA:0,_RNvMs0_NtNtCscwo6F0TH2eV_17fossil_headers_db7indexer13quick_serviceNtB5_23QuickIndexConfigBuilder12slow_polling
FNDA:3,_RNvMs0_NtNtCscwo6F0TH2eV_17fossil_headers_db7indexer13quick_serviceNtB5_23QuickIndexConfigBuilder13poll_interval
FNDA:3,_RNvMs0_NtNtCscwo6F0TH2eV_17fossil_headers_db7indexer13quick_serviceNtB5_23QuickIndexConfigBuilder16index_batch_size
FNDA:3,_RNvMs0_NtNtCscwo6F0TH2eV_17fossil_headers_db7indexer13quick_serviceNtB5_23QuickIndexConfigBuilder16should_index_txs
FNDA:3,_RNvMs0_NtNtCscwo6F0TH2eV_17fossil_headers_db7indexer13quick_serviceNtB5_23QuickIndexConfigBuilder3new
FNDA:3,_RNvMs0_NtNtCscwo6F0TH2eV_17fossil_headers_db7indexer13quick_serviceNtB5_23QuickIndexConfigBuilder5build
FNDA:0,_RNvMs0_NtNtCscwo6F0TH2eV_17fossil_headers_db7indexer13quick_serviceNtB5_23QuickIndexConfigBuilder7testing
FNDA:0,_RNvXs1_NtNtCscwo6F0TH2eV_17fossil_headers_db7indexer13quick_serviceNtB5_23QuickIndexConfigBuilderNtNtCs66KPHxksi63_4core7default7Default7default
FNDA:0,_RNvXs_NtNtCscwo6F0TH2eV_17fossil_headers_db7indexer13quick_serviceNtB4_16QuickIndexConfigNtNtCs66KPHxksi63_4core7default7Default7default
FNDA:0,_RNvMNtNtCs5Xp1JEPGtUd_17fossil_headers_db7indexer13quick_serviceNtB2_16QuickIndexConfig7builder
FNDA:0,_RNvMs0_NtNtCs5Xp1JEPGtUd_17fossil_headers_db7indexer13quick_serviceNtB5_23QuickIndexConfigBuilder11max_retries
FNDA:0,_RNvMs0_NtNtCs5Xp1JEPGtUd_17fossil_headers_db7indexer13quick_serviceNtB5_23QuickIndexConfigBuilder11rpc_timeout
FNDA:0,_RNvMs0_NtNtCs5Xp1JEPGtUd_17fossil_headers_db7indexer13quick_serviceNtB5_23QuickIndexConfigBuilder12fast_polling
FNDA:0,_RNvMs0_NtNtCs5Xp1JEPGtUd_17fossil_headers_db7indexer13quick_serviceNtB5_23QuickIndexConfigBuilder12slow_polling
FNDA:0,_RNvMs0_NtNtCs5Xp1JEPGtUd_17fossil_headers_db7indexer13quick_serviceNtB5_23QuickIndexConfigBuilder13poll_interval
FNDA:0,_RNvMs0_NtNtCs5Xp1JEPGtUd_17fossil_headers_db7indexer13quick_serviceNtB5_23QuickIndexConfigBuilder16index_batch_size
FNDA:0,_RNvMs0_NtNtCs5Xp1JEPGtUd_17fossil_headers_db7indexer13quick_serviceNtB5_23QuickIndexConfigBuilder16should_index_txs
FNDA:0,_RNvMs0_NtNtCs5Xp1JEPGtUd_17fossil_headers_db7indexer13quick_serviceNtB5_23QuickIndexConfigBuilder3new
FNDA:0,_RNvMs0_NtNtCs5Xp1JEPGtUd_17fossil_headers_db7indexer13quick_serviceNtB5_23QuickIndexConfigBuilder5build
FNDA:0,_RNvMs0_NtNtCs5Xp1JEPGtUd_17fossil_headers_db7indexer13quick_serviceNtB5_23QuickIndexConfigBuilder7testing
FNDA:0,_RNvXs1_NtNtCs5Xp1JEPGtUd_17fossil_headers_db7indexer13quick_serviceNtB5_23QuickIndexConfigBuilderNtNtCs66KPHxksi63_4core7default7Default7default
FNDA:6,_RNCNCNvMs2_NtNtCs5Xp1JEPGtUd_17fossil_headers_db7indexer13quick_serviceINtB9_12QuickIndexerNtNtBb_10test_utils15MockRpcProviderE18create_rpc_futures00Bd_
FNDA:2,_RNCNCNvMs2_NtNtCs5Xp1JEPGtUd_17fossil_headers_db7indexer13quick_serviceINtB9_12QuickIndexerNtNtBb_10test_utils15MockRpcProviderE19store_block_headers00Bd_
FNDA:0,_RNCNCNvMs2_NtNtCs5Xp1JEPGtUd_17fossil_headers_db7indexer13quick_serviceINtB9_12QuickIndexerNtNtBb_10test_utils15MockRpcProviderE19store_block_headers0s0_0Bd_
FNDA:0,_RNCNCNvMs2_NtNtCs5Xp1JEPGtUd_17fossil_headers_db7indexer13quick_serviceINtB9_12QuickIndexerNtNtBb_10test_utils15MockRpcProviderE19store_block_headers0s1_0Bd_
FNDA:0,_RNCNCNvMs2_NtNtCs5Xp1JEPGtUd_17fossil_headers_db7indexer13quick_serviceINtB9_12QuickIndexerNtNtBb_10test_utils15MockRpcProviderE19store_block_headers0s2_0Bd_
FNDA:0,_RNCNCNvMs2_NtNtCs5Xp1JEPGtUd_17fossil_headers_db7indexer13quick_serviceINtB9_12QuickIndexerNtNtBb_10test_utils15MockRpcProviderE19store_block_headers0s3_0Bd_
FNDA:0,_RNCNCNvMs2_NtNtCs5Xp1JEPGtUd_17fossil_headers_db7indexer13quick_serviceINtB9_12QuickIndexerNtNtBb_10test_utils15MockRpcProviderE19store_block_headers0s_0Bd_
FNDA:0,_RNCNCNvMs2_NtNtCs5Xp1JEPGtUd_17fossil_headers_db7indexer13quick_serviceINtB9_12QuickIndexerNtNtBb_10test_utils15MockRpcProviderE20verify_blocks_stored00Bd_
FNDA:1,_RNCNCNvMs2_NtNtCs5Xp1JEPGtUd_17fossil_headers_db7indexer13quick_serviceINtB9_12QuickIndexerNtNtBb_10test_utils15MockRpcProviderE26get_latest_finalized_block00Bd_
FNDA:2,_RNCNvMs2_NtNtCs5Xp1JEPGtUd_17fossil_headers_db7indexer13quick_serviceINtB7_12QuickIndexerNtNtB9_10test_utils15MockRpcProviderE15log_and_backoff0Bb_
FNDA:4,_RNCNvMs2_NtNtCs5Xp1JEPGtUd_17fossil_headers_db7indexer13quick_serviceINtB7_12QuickIndexerNtNtB9_10test_utils15MockRpcProviderE16index_new_blocks0Bb_
FNDA:4,_RNCNvMs2_NtNtCs5Xp1JEPGtUd_17fossil_headers_db7indexer13quick_serviceINtB7_12QuickIndexerNtNtB9_10test_utils15MockRpcProviderE17index_block_range0Bb_
FNDA:6,_RNCNvMs2_NtNtCs5Xp1JEPGtUd_17fossil_headers_db7indexer13quick_serviceINtB7_12QuickIndexerNtNtB9_10test_utils15MockRpcProviderE18create_rpc_futures0Bb_
FNDA:4,_RNCNvMs2_NtNtCs5Xp1JEPGtUd_17fossil_headers_db7indexer13quick_serviceINtB7_12QuickIndexerNtNtB9_10test_utils15MockRpcProviderE18retry_with_backoff0Bb_
FNDA:5,_RNCNvMs2_NtNtCs5Xp1JEPGtUd_17fossil_headers_db7indexer13quick_serviceINtB7_12QuickIndexerNtNtB9_10test_utils15MockRpcProviderE19fetch_block_headers0Bb_
FNDA:3,_RNCNvMs2_NtNtCs5Xp1JEPGtUd_17fossil_headers_db7indexer13quick_serviceINtB7_12QuickIndexerNtNtB9_10test_utils15MockRpcProviderE19store_block_headers0Bb_
FNDA:5,_RNCNvMs2_NtNtCs5Xp1JEPGtUd_17fossil_headers_db7indexer13quick_serviceINtB7_12QuickIndexerNtNtB9_10test_utils15MockRpcProviderE19try_fetch_and_store0Bb_
FNDA:3,_RNCNvMs2_NtNtCs5Xp1JEPGtUd_17fossil_headers_db7indexer13quick_serviceINtB7_12QuickIndexerNtNtB9_10test_utils15MockRpcProviderE19wait_for_new_blocks0Bb_
FNDA:3,_RNCNvMs2_NtNtCs5Xp1JEPGtUd_17fossil_headers_db7indexer13quick_serviceINtB7_12QuickIndexerNtNtB9_10test_utils15MockRpcProviderE20log_indexing_success0Bb_
FNDA:3,_RNCNvMs2_NtNtCs5Xp1JEPGtUd_17fossil_headers_db7indexer13quick_serviceINtB7_12QuickIndexerNtNtB9_10test_utils15MockRpcProviderE20verify_blocks_stored0Bb_
FNDA:3,_RNCNvMs2_NtNtCs5Xp1JEPGtUd_17fossil_headers_db7indexer13quick_serviceINtB7_12QuickIndexerNtNtB9_10test_utils15MockRpcProviderE21get_total_block_count0Bb_
FNDA:0,_RNCNvMs2_NtNtCs5Xp1JEPGtUd_17fossil_headers_db7indexer13quick_serviceINtB7_12QuickIndexerNtNtB9_10test_utils15MockRpcProviderE21process_rpc_responses0Bb_
FNDA:0,_RNCNvMs2_NtNtCs5Xp1JEPGtUd_17fossil_headers_db7indexer13quick_serviceINtB7_12QuickIndexerNtNtB9_10test_utils15MockRpcProviderE21process_rpc_responsess_0Bb_
FNDA:5,_RNCNvMs2_NtNtCs5Xp1JEPGtUd_17fossil_headers_db7indexer13quick_serviceINtB7_12QuickIndexerNtNtB9_10test_utils15MockRpcProviderE22fetch_and_store_blocks0Bb_
FNDA:9,_RNCNvMs2_NtNtCs5Xp1JEPGtUd_17fossil_headers_db7indexer13quick_serviceINtB7_12QuickIndexerNtNtB9_10test_utils15MockRpcProviderE22get_last_indexed_block0Bb_
FNDA:9,_RNCNvMs2_NtNtCs5Xp1JEPGtUd_17fossil_headers_db7indexer13quick_serviceINtB7_12QuickIndexerNtNtB9_10test_utils15MockRpcProviderE22process_indexing_cycle0Bb_
FNDA:3,_RNCNvMs2_NtNtCs5Xp1JEPGtUd_17fossil_headers_db7indexer13quick_serviceINtB7_12QuickIndexerNtNtB9_10test_utils15MockRpcProviderE23get_latest_block_number0Bb_
FNDA:2,_RNCNvMs2_NtNtCs5Xp1JEPGtUd_17fossil_headers_db7indexer13quick_serviceINtB7_12QuickIndexerNtNtB9_10test_utils15MockRpcProviderE25apply_exponential_backoff0Bb_
FNDA:8,_RNCNvMs2_NtNtCs5Xp1JEPGtUd_17fossil_headers_db7indexer13quick_serviceINtB7_12QuickIndexerNtNtB9_10test_utils15MockRpcProviderE26get_latest_finalized_block0Bb_
FNDA:6,_RNCNvMs2_NtNtCs5Xp1JEPGtUd_17fossil_headers_db7indexer13quick_serviceINtB7_12QuickIndexerNtNtB9_10test_utils15MockRpcProviderE5index0Bb_
FNDA:7,_RNvMs2_NtNtCs5Xp1JEPGtUd_17fossil_headers_db7indexer13quick_serviceINtB5_12QuickIndexerNtNtB7_10test_utils15MockRpcProviderE14has_new_blocksB9_
FNDA:2,_RNvMs2_NtNtCs5Xp1JEPGtUd_17fossil_headers_db7indexer13quick_serviceINtB5_12QuickIndexerNtNtB7_10test_utils15MockRpcProviderE15log_and_backoffB9_
FNDA:4,_RNvMs2_NtNtCs5Xp1JEPGtUd_17fossil_headers_db7indexer13quick_serviceINtB5_12QuickIndexerNtNtB7_10test_utils15MockRpcProviderE16index_new_blocksB9_
FNDA:4,_RNvMs2_NtNtCs5Xp1JEPGtUd_17fossil_headers_db7indexer13quick_serviceINtB5_12QuickIndexerNtNtB7_10test_utils15MockRpcProviderE17index_block_rangeB9_
FNDA:5,_RNvMs2_NtNtCs5Xp1JEPGtUd_17fossil_headers_db7indexer13quick_serviceINtB5_12QuickIndexerNtNtB7_10test_utils15MockRpcProviderE18create_rpc_futuresB9_
FNDA:4,_RNvMs2_NtNtCs5Xp1JEPGtUd_17fossil_headers_db7indexer13quick_serviceINtB5_12QuickIndexerNtNtB7_10test_utils15MockRpcProviderE18retry_with_backoffB9_
FNDA:5,_RNvMs2_NtNtCs5Xp1JEPGtUd_17fossil_headers_db7indexer13quick_serviceINtB5_12QuickIndexerNtNtB7_10test_utils15MockRpcProviderE19fetch_block_headersB9_
FNDA:3,_RNvMs2_NtNtCs5Xp1JEPGtUd_17fossil_headers_db7indexer13quick_serviceINtB5_12QuickIndexerNtNtB7_10test_utils15MockRpcProviderE19store_block_headersB9_
FNDA:5,_RNvMs2_NtNtCs5Xp1JEPGtUd_17fossil_headers_db7indexer13quick_serviceINtB5_12QuickIndexerNtNtB7_10test_utils15MockRpcProviderE19try_fetch_and_storeB9_
FNDA:3,_RNvMs2_NtNtCs5Xp1JEPGtUd_17fossil_headers_db7indexer13quick_serviceINtB5_12QuickIndexerNtNtB7_10test_utils15MockRpcProviderE19wait_for_new_blocksB9_
FNDA:3,_RNvMs2_NtNtCs5Xp1JEPGtUd_17fossil_headers_db7indexer13quick_serviceINtB5_12QuickIndexerNtNtB7_10test_utils15MockRpcProviderE20log_indexing_successB9_
FNDA:3,_RNvMs2_NtNtCs5Xp1JEPGtUd_17fossil_headers_db7indexer13quick_serviceINtB5_12QuickIndexerNtNtB7_10test_utils15MockRpcProviderE20verify_blocks_storedB9_
FNDA:3,_RNvMs2_NtNtCs5Xp1JEPGtUd_17fossil_headers_db7indexer13quick_serviceINtB5_12QuickIndexerNtNtB7_10test_utils15MockRpcProviderE21get_total_block_countB9_
FNDA:5,_RNvMs2_NtNtCs5Xp1JEPGtUd_17fossil_headers_db7indexer13quick_serviceINtB5_12QuickIndexerNtNtB7_10test_utils15MockRpcProviderE21process_rpc_responsesB9_
FNDA:4,_RNvMs2_NtNtCs5Xp1JEPGtUd_17fossil_headers_db7indexer13quick_serviceINtB5_12QuickIndexerNtNtB7_10test_utils15MockRpcProviderE22calculate_ending_blockB9_
FNDA:5,_RNvMs2_NtNtCs5Xp1JEPGtUd_17fossil_headers_db7indexer13quick_serviceINtB5_12QuickIndexerNtNtB7_10test_utils15MockRpcProviderE22fetch_and_store_blocksB9_
FNDA:9,_RNvMs2_NtNtCs5Xp1JEPGtUd_17fossil_headers_db7indexer13quick_serviceINtB5_12QuickIndexerNtNtB7_10test_utils15MockRpcProviderE22get_last_indexed_blockB9_
FNDA:9,_RNvMs2_NtNtCs5Xp1JEPGtUd_17fossil_headers_db7indexer13quick_serviceINtB5_12QuickIndexerNtNtB7_10test_utils15MockRpcProviderE22process_indexing_cycleB9_
FNDA:3,_RNvMs2_NtNtCs5Xp1JEPGtUd_17fossil_headers_db7indexer13quick_serviceINtB5_12QuickIndexerNtNtB7_10test_utils15MockRpcProviderE23get_latest_block_numberB9_
FNDA:5,_RNvMs2_NtNtCs5Xp1JEPGtUd_17fossil_headers_db7indexer13quick_serviceINtB5_12QuickIndexerNtNtB7_10test_utils15MockRpcProviderE24check_termination_signalB9_
FNDA:2,_RNvMs2_NtNtCs5Xp1JEPGtUd_17fossil_headers_db7indexer13quick_serviceINtB5_12QuickIndexerNtNtB7_10test_utils15MockRpcProviderE25apply_exponential_backoffB9_
FNDA:8,_RNvMs2_NtNtCs5Xp1JEPGtUd_17fossil_headers_db7indexer13quick_serviceINtB5_12QuickIndexerNtNtB7_10test_utils15MockRpcProviderE26get_latest_finalized_blockB9_
FNDA:7,_RNvMs2_NtNtCs5Xp1JEPGtUd_17fossil_headers_db7indexer13quick_serviceINtB5_12QuickIndexerNtNtB7_10test_utils15MockRpcProviderE3newB9_
FNDA:6,_RNvMs2_NtNtCs5Xp1JEPGtUd_17fossil_headers_db7indexer13quick_serviceINtB5_12QuickIndexerNtNtB7_10test_utils15MockRpcProviderE5indexB9_
FNDA:7,_RNvXs_NtNtCs5Xp1JEPGtUd_17fossil_headers_db7indexer13quick_serviceNtB4_16QuickIndexConfigNtNtCs66KPHxksi63_4core7default7Default7default
FNDA:4,_RNvNtNtNtCs5Xp1JEPGtUd_17fossil_headers_db7indexer13quick_service5tests22get_fixtures_for_tests
FNDA:1,_RNCNCINvNCNvNtNtNtCs5Xp1JEPGtUd_17fossil_headers_db7indexer13quick_service5testss_24test_quick_index_with_tx024test_quick_index_with_txNtNtCs3fCLpenLmI3_13sqlx_postgres7options16PgConnectOptionsE00Bg_
FNDA:1,_RNCNCINvNCNvNtNtNtCs5Xp1JEPGtUd_17fossil_headers_db7indexer13quick_service5testss_37test_quick_index_default_headers_only037test_quick_index_default_headers_onlyNtNtCs3fCLpenLmI3_13sqlx_postgres7options16PgConnectOptionsE00Bg_
FNDA:1,_RNCNCINvNCNvNtNtNtCs5Xp1JEPGtUd_17fossil_headers_db7indexer13quick_service5testss_60test_quick_index_always_index_for_latest_blocknumber_with_tx060test_quick_index_always_index_for_latest_blocknumber_with_txNtNtCs3fCLpenLmI3_13sqlx_postgres7options16PgConnectOptionsE00Bg_
FNDA:4,_RNCNvNtNtNtCs5Xp1JEPGtUd_17fossil_headers_db7indexer13quick_service5tests22get_fixtures_for_tests0B9_
FNF:72
FNH:60
DA:37,3
DA:38,3
DA:39,3
DA:43,7
DA:44,7
DA:45,7
DA:46,7
DA:47,7
DA:48,7
DA:49,7
DA:50,7
DA:51,7
DA:64,3
DA:65,3
DA:66,3
DA:67,3
DA:68,3
DA:69,3
DA:70,3
DA:71,3
DA:72,3
DA:75,0
DA:76,0
DA:77,0
DA:78,0
DA:79,0
DA:80,0
DA:83,0
DA:84,0
DA:85,0
DA:86,0
DA:87,0
DA:88,0
DA:91,0
DA:92,0
DA:93,0
DA:94,0
DA:95,0
DA:96,0
DA:97,0
DA:100,3
DA:101,3
DA:102,3
DA:103,3
DA:106,3
DA:107,3
DA:108,3
DA:109,3
DA:112,3
DA:113,3
DA:114,3
DA:115,3
DA:118,3
DA:119,3
DA:120,3
DA:121,3
DA:124,3
DA:125,3
DA:126,3
DA:127,3
DA:129,3
DA:130,3
DA:131,0
DA:132,0
DA:133,0
DA:134,0
DA:135,3
DA:137,3
DA:138,0
DA:139,0
DA:140,0
DA:141,0
DA:142,3
DA:144,3
DA:145,0
DA:146,0
DA:147,0
DA:148,0
DA:149,3
DA:151,3
DA:152,0
DA:153,0
DA:154,0
DA:155,0
DA:156,3
DA:158,3
DA:159,3
DA:160,3
DA:161,3
DA:162,3
DA:163,3
DA:164,3
DA:165,3
DA:169,0
DA:170,0
DA:171,0
DA:185,10
DA:186,10
DA:187,10
DA:188,10
DA:189,10
DA:190,10
DA:191,10
DA:192,10
DA:193,10
DA:194,10
DA:195,10
DA:196,10
DA:197,10
DA:199,9
DA:205,23
DA:206,23
DA:209,0
DA:210,0
DA:211,3
DA:213,23
DA:214,23
DA:215,19
DA:217,18
DA:218,4
DA:219,4
DA:221,14
DA:223,17
DA:225,23
DA:226,23
DA:227,19
DA:229,1
DA:230,1
DA:232,0
DA:233,0
DA:234,0
DA:237,20
DA:239,19
DA:240,19
DA:241,19
DA:242,19
DA:243,19
DA:244,19
DA:246,18
DA:247,18
DA:248,18
DA:250,4
DA:251,4
DA:252,4
DA:253,4
DA:254,4
DA:255,4
DA:257,4
DA:258,4
DA:259,4
DA:260,4
DA:261,4
DA:262,4
DA:263,4
DA:265,4
DA:266,4
DA:267,4
DA:269,4
DA:270,0
DA:272,4
DA:274,4
DA:276,14
DA:277,14
DA:278,0
DA:281,14
DA:282,11
DA:283,11
DA:286,4
DA:287,4
DA:288,4
DA:289,4
DA:290,4
DA:291,4
DA:292,4
DA:293,4
DA:294,4
DA:295,4
DA:297,4
DA:298,4
DA:299,4
DA:300,4
DA:301,4
DA:302,4
DA:303,4
DA:304,5
DA:305,5
DA:306,0
DA:307,5
DA:309,2
DA:310,5
DA:311,5
DA:314,3
DA:315,3
DA:316,3
DA:317,2
DA:319,2
DA:322,1
DA:323,4
DA:325,5
DA:326,5
DA:327,0
DA:328,0
DA:330,5
DA:332,5
DA:334,5
DA:335,5
DA:336,5
DA:337,5
DA:338,5
DA:339,5
DA:340,5
DA:341,5
DA:342,5
DA:344,3
DA:345,3
DA:346,3
DA:347,3
DA:348,3
DA:349,3
DA:351,3
DA:352,3
DA:353,3
DA:354,3
DA:355,3
DA:356,3
DA:358,3
DA:359,3
DA:360,3
DA:361,3
DA:362,0
DA:365,3
DA:367,2
DA:368,2
DA:369,0
DA:372,2
DA:373,2
DA:375,5
DA:376,5
DA:377,5
DA:378,5
DA:379,5
DA:380,5
DA:381,5
DA:382,5
DA:383,5
DA:384,3
DA:385,3
DA:388,3
DA:389,3
DA:390,3
DA:392,0
DA:393,0
DA:396,0
DA:397,3
DA:399,3
DA:400,5
DA:402,5
DA:403,5
DA:404,5
DA:405,5
DA:406,5
DA:407,5
DA:408,5
DA:409,5
DA:410,5
DA:411,5
DA:413,5
DA:414,5
DA:415,5
DA:416,5
DA:418,5
DA:419,5
DA:421,5
DA:422,5
DA:423,6
DA:424,6
DA:425,6
DA:426,6
DA:427,6
DA:428,6
DA:429,6
DA:430,6
DA:431,6
DA:432,6
DA:433,6
DA:434,6
DA:435,5
DA:436,5
DA:438,5
DA:439,5
DA:440,5
DA:441,5
DA:442,5
DA:443,5
DA:444,0
DA:445,0
DA:449,0
DA:450,5
DA:451,0
DA:452,0
DA:453,0
DA:454,0
DA:455,0
DA:456,5
DA:458,5
DA:459,5
DA:461,6
DA:462,6
DA:463,6
DA:464,4
DA:466,4
DA:467,0
DA:468,0
DA:470,4
DA:471,0
DA:472,0
DA:473,0
DA:474,0
DA:475,0
DA:476,4
DA:478,4
DA:480,2
DA:481,2
DA:482,2
DA:483,0
DA:490,5
DA:491,2
DA:492,3
DA:495,3
DA:496,0
DA:497,0
DA:498,0
DA:499,0
DA:500,0
DA:501,3
DA:503,3
DA:504,5
DA:506,3
DA:507,3
DA:508,3
DA:509,3
DA:510,3
DA:511,3
DA:512,0
DA:513,3
DA:516,3
DA:517,3
DA:520,3
DA:521,0
DA:522,0
DA:523,0
DA:526,0
DA:528,4
DA:529,4
DA:530,4
DA:531,0
DA:532,0
DA:534,4
DA:535,0
DA:536,0
DA:537,0
DA:538,0
DA:539,0
DA:540,0
DA:541,4
DA:545,3
DA:546,3
DA:547,3
DA:548,3
DA:549,0
DA:550,0
DA:554,0
DA:555,3
DA:556,0
DA:557,0
DA:558,0
DA:559,0
DA:560,0
DA:561,3
DA:564,3
DA:566,3
DA:567,2
DA:569,1
DA:573,3
DA:576,3
DA:577,0
DA:578,0
DA:579,0
DA:581,3
DA:582,3
DA:584,2
DA:585,2
DA:586,2
DA:587,2
DA:589,3
DA:590,3
DA:591,0
DA:592,0
DA:596,0
DA:598,3
DA:599,3
DA:600,3
DA:601,3
DA:602,3
DA:603,3
DA:605,3
DA:606,0
DA:607,3
DA:610,3
DA:611,3
DA:612,3
DA:613,3
DA:614,3
DA:615,3
DA:616,3
DA:617,3
DA:618,3
DA:619,3
DA:620,3
DA:621,3
DA:622,3
DA:623,3
DA:624,3
DA:625,3
DA:626,3
DA:627,3
DA:628,3
DA:630,3
DA:631,0
DA:632,0
DA:633,0
DA:634,0
DA:635,0
DA:636,0
DA:637,3
DA:639,3
DA:640,3
DA:659,4
DA:660,4
DA:662,28
DA:663,24
DA:664,24
DA:665,24
DA:666,24
DA:667,24
DA:669,24
DA:670,24
DA:673,4
DA:674,4
DA:721,1
DA:722,1
DA:723,0
DA:781,1
DA:782,1
DA:783,0
DA:859,1
DA:860,1
DA:861,0
BRF:0
BRH:0
LF:496
LH:370
end_of_record
SF:/home/ametel/source/fossil-headers-db/src/indexer/test_utils.rs
FN:19,_RNvXNtNtCs5Xp1JEPGtUd_17fossil_headers_db7indexer10test_utilsNtB2_15MockRpcProviderNtNtCs66KPHxksi63_4core7default7Default7default
FN:65,_RNCNvXs0_NtNtCs5Xp1JEPGtUd_17fossil_headers_db7indexer10test_utilsNtB7_15MockRpcProviderNtNtBb_3rpc19EthereumRpcProvider24get_full_block_by_number0Bb_
FN:46,_RNCNvXs0_NtNtCs5Xp1JEPGtUd_17fossil_headers_db7indexer10test_utilsNtB7_15MockRpcProviderNtNtBb_3rpc19EthereumRpcProvider32get_latest_finalized_blocknumber0Bb_
FN:34,_RNvMs_NtNtCs5Xp1JEPGtUd_17fossil_headers_db7indexer10test_utilsNtB4_15MockRpcProvider13new_with_data
FN:26,_RNvMs_NtNtCs5Xp1JEPGtUd_17fossil_headers_db7indexer10test_utilsNtB4_15MockRpcProvider3new
FN:60,_RNvXs0_NtNtCs5Xp1JEPGtUd_17fossil_headers_db7indexer10test_utilsNtB5_15MockRpcProviderNtNtB9_3rpc19EthereumRpcProvider24get_full_block_by_number
FN:46,_RNvXs0_NtNtCs5Xp1JEPGtUd_17fossil_headers_db7indexer10test_utilsNtB5_15MockRpcProviderNtNtB9_3rpc19EthereumRpcProvider32get_latest_finalized_blocknumber
FNDA:0,_RNvXNtNtCs5Xp1JEPGtUd_17fossil_headers_db7indexer10test_utilsNtB2_15MockRpcProviderNtNtCs66KPHxksi63_4core7default7Default7default
FNDA:44,_RNCNvXs0_NtNtCs5Xp1JEPGtUd_17fossil_headers_db7indexer10test_utilsNtB7_15MockRpcProviderNtNtBb_3rpc19EthereumRpcProvider24get_full_block_by_number0Bb_
FNDA:8,_RNCNvXs0_NtNtCs5Xp1JEPGtUd_17fossil_headers_db7indexer10test_utilsNtB7_15MockRpcProviderNtNtBb_3rpc19EthereumRpcProvider32get_latest_finalized_blocknumber0Bb_
FNDA:8,_RNvMs_NtNtCs5Xp1JEPGtUd_17fossil_headers_db7indexer10test_utilsNtB4_15MockRpcProvider13new_with_data
FNDA:5,_RNvMs_NtNtCs5Xp1JEPGtUd_17fossil_headers_db7indexer10test_utilsNtB4_15MockRpcProvider3new
FNDA:44,_RNvXs0_NtNtCs5Xp1JEPGtUd_17fossil_headers_db7indexer10test_utilsNtB5_15MockRpcProviderNtNtB9_3rpc19EthereumRpcProvider24get_full_block_by_number
FNDA:8,_RNvXs0_NtNtCs5Xp1JEPGtUd_17fossil_headers_db7indexer10test_utilsNtB5_15MockRpcProviderNtNtB9_3rpc19EthereumRpcProvider32get_latest_finalized_blocknumber
FNF:7
FNH:6
DA:19,0
DA:20,0
DA:21,0
DA:26,5
DA:27,5
DA:28,5
DA:29,5
DA:30,5
DA:31,5
DA:34,8
DA:35,8
DA:36,8
DA:37,8
DA:38,8
DA:39,8
DA:40,8
DA:41,8
DA:42,8
DA:46,8
DA:47,8
DA:48,8
DA:49,8
DA:50,8
DA:51,8
DA:52,8
DA:53,7
DA:54,1
DA:55,1
DA:56,1
DA:57,1
DA:58,8
DA:60,44
DA:61,44
DA:62,44
DA:63,44
DA:64,44
DA:65,44
DA:66,44
DA:67,44
DA:68,20
DA:69,24
DA:70,24
DA:71,24
DA:72,24
DA:73,44
BRF:0
BRH:0
LF:47
LH:44
end_of_record
SF:/home/ametel/source/fossil-headers-db/src/main.rs
FN:101,_RNvCsaImZPb8KXhW_17fossil_headers_db19setup_ctrlc_handler
FN:41,_RNvCsaImZPb8KXhW_17fossil_headers_db4main
FN:62,_RNCNCNvCsaImZPb8KXhW_17fossil_headers_db4main00B5_
FN:70,_RNCNCNvCsaImZPb8KXhW_17fossil_headers_db4main0s_0B5_
FN:102,_RNCNvCsaImZPb8KXhW_17fossil_headers_db19setup_ctrlc_handler0B3_
FN:107,_RNCNvCsaImZPb8KXhW_17fossil_headers_db19setup_ctrlc_handlers_0B3_
FN:41,_RNCNvCsaImZPb8KXhW_17fossil_headers_db4main0B3_
FN:62,_RNCNCNvCsWNfxrYCnTX_17fossil_headers_db4main00B5_
FN:70,_RNCNCNvCsWNfxrYCnTX_17fossil_headers_db4main0s_0B5_
FN:102,_RNCNvCsWNfxrYCnTX_17fossil_headers_db19setup_ctrlc_handler0B3_
FN:107,_RNCNvCsWNfxrYCnTX_17fossil_headers_db19setup_ctrlc_handlers_0B3_
FN:41,_RNCNvCsWNfxrYCnTX_17fossil_headers_db4main0B3_
FN:101,_RNvCsWNfxrYCnTX_17fossil_headers_db19setup_ctrlc_handler
FN:41,_RNvCsWNfxrYCnTX_17fossil_headers_db4main
FNDA:0,_RNvCsaImZPb8KXhW_17fossil_headers_db19setup_ctrlc_handler
FNDA:0,_RNvCsaImZPb8KXhW_17fossil_headers_db4main
FNDA:0,_RNCNCNvCsaImZPb8KXhW_17fossil_headers_db4main00B5_
FNDA:0,_RNCNCNvCsaImZPb8KXhW_17fossil_headers_db4main0s_0B5_
FNDA:0,_RNCNvCsaImZPb8KXhW_17fossil_headers_db19setup_ctrlc_handler0B3_
FNDA:0,_RNCNvCsaImZPb8KXhW_17fossil_headers_db19setup_ctrlc_handlers_0B3_
FNDA:0,_RNCNvCsaImZPb8KXhW_17fossil_headers_db4main0B3_
FNDA:0,_RNCNCNvCsWNfxrYCnTX_17fossil_headers_db4main00B5_
FNDA:0,_RNCNCNvCsWNfxrYCnTX_17fossil_headers_db4main0s_0B5_
FNDA:0,_RNCNvCsWNfxrYCnTX_17fossil_headers_db19setup_ctrlc_handler0B3_
FNDA:0,_RNCNvCsWNfxrYCnTX_17fossil_headers_db19setup_ctrlc_handlers_0B3_
FNDA:0,_RNCNvCsWNfxrYCnTX_17fossil_headers_db4main0B3_
FNDA:0,_RNvCsWNfxrYCnTX_17fossil_headers_db19setup_ctrlc_handler
FNDA:0,_RNvCsWNfxrYCnTX_17fossil_headers_db4main
FNF:7
FNH:0
DA:41,0
DA:42,0
DA:45,0
DA:46,0
DA:47,0
DA:48,0
DA:49,0
DA:50,0
DA:51,0
DA:52,0
DA:54,0
DA:56,0
DA:57,0
DA:58,0
DA:60,0
DA:62,0
DA:63,0
DA:64,0
DA:65,0
DA:66,0
DA:68,0
DA:70,0
DA:71,0
DA:73,0
DA:74,0
DA:75,0
DA:78,0
DA:79,0
DA:80,0
DA:81,0
DA:82,0
DA:83,0
DA:84,0
DA:85,0
DA:86,0
DA:90,0
DA:91,0
DA:92,0
DA:94,0
DA:96,0
DA:98,0
DA:99,0
DA:101,0
DA:102,0
DA:103,0
DA:104,0
DA:105,0
DA:106,0
DA:107,0
DA:108,0
BRF:0
BRH:0
LF:56
LH:0
end_of_record
SF:/home/ametel/source/fossil-headers-db/src/mocks.rs
FN:97,_RINvMs4_NtNtNtCs5Xp1JEPGtUd_17fossil_headers_db5mocks44___mock_MockDatabaseProvider_DatabaseProvider14___block_existsNtB6_6Common4withpEBc_
FN:97,_RINvMs4_NtNtNtCs5Xp1JEPGtUd_17fossil_headers_db5mocks44___mock_MockDatabaseProvider_DatabaseProvider14___block_existsNtB6_6Common5timespEBc_
FN:97,_RINvMs4_NtNtNtCs5Xp1JEPGtUd_17fossil_headers_db5mocks44___mock_MockDatabaseProvider_DatabaseProvider14___block_existsNtB6_6Common5withfpEBc_
FN:97,_RINvMs4_NtNtNtCs5Xp1JEPGtUd_17fossil_headers_db5mocks44___mock_MockDatabaseProvider_DatabaseProvider14___block_existsNtB6_6Common8withf_stpEBc_
FN:97,_RINvMs4_NtNtNtCs5Xp1JEPGtUd_17fossil_headers_db5mocks44___mock_MockDatabaseProvider_DatabaseProvider16___find_first_gapNtB6_6Common4withppEBc_
FN:97,_RINvMs4_NtNtNtCs5Xp1JEPGtUd_17fossil_headers_db5mocks44___mock_MockDatabaseProvider_DatabaseProvider16___find_first_gapNtB6_6Common5timespEBc_
FN:97,_RINvMs4_NtNtNtCs5Xp1JEPGtUd_17fossil_headers_db5mocks44___mock_MockDatabaseProvider_DatabaseProvider16___find_first_gapNtB6_6Common5withfpEBc_
FN:97,_RINvMs4_NtNtNtCs5Xp1JEPGtUd_17fossil_headers_db5mocks44___mock_MockDatabaseProvider_DatabaseProvider16___find_first_gapNtB6_6Common8withf_stpEBc_
FN:97,_RINvMs4_NtNtNtCs5Xp1JEPGtUd_17fossil_headers_db5mocks44___mock_MockDatabaseProvider_DatabaseProvider18___check_connectionNtB6_6Common5timespEBc_
FN:97,_RINvMs4_NtNtNtCs5Xp1JEPGtUd_17fossil_headers_db5mocks44___mock_MockDatabaseProvider_DatabaseProvider18___check_connectionNtB6_6Common5withfpEBc_
FN:97,_RINvMs4_NtNtNtCs5Xp1JEPGtUd_17fossil_headers_db5mocks44___mock_MockDatabaseProvider_DatabaseProvider18___check_connectionNtB6_6Common8withf_stpEBc_
FN:97,_RINvMs4_NtNtNtCs5Xp1JEPGtUd_17fossil_headers_db5mocks44___mock_MockDatabaseProvider_DatabaseProvider21___insert_block_headerNtB6_6Common4withppEBc_
FN:97,_RINvMs4_NtNtNtCs5Xp1JEPGtUd_17fossil_headers_db5mocks44___mock_MockDatabaseProvider_DatabaseProvider21___insert_block_headerNtB6_6Common5timespEBc_
FN:97,_RINvMs4_NtNtNtCs5Xp1JEPGtUd_17fossil_headers_db5mocks44___mock_MockDatabaseProvider_DatabaseProvider21___insert_block_headerNtB6_6Common5withfpEBc_
FN:97,_RINvMs4_NtNtNtCs5Xp1JEPGtUd_17fossil_headers_db5mocks44___mock_MockDatabaseProvider_DatabaseProvider21___insert_block_headerNtB6_6Common8withf_stpEBc_
FN:97,_RINvMs4_NtNtNtCs5Xp1JEPGtUd_17fossil_headers_db5mocks44___mock_MockDatabaseProvider_DatabaseProvider29___get_last_stored_blocknumberNtB6_6Common5timespEBc_
FN:97,_RINvMs4_NtNtNtCs5Xp1JEPGtUd_17fossil_headers_db5mocks44___mock_MockDatabaseProvider_DatabaseProvider29___get_last_stored_blocknumberNtB6_6Common5withfpEBc_
FN:97,_RINvMs4_NtNtNtCs5Xp1JEPGtUd_17fossil_headers_db5mocks44___mock_MockDatabaseProvider_DatabaseProvider29___get_last_stored_blocknumberNtB6_6Common8withf_stpEBc_
FN:61,_RINvMs4_NtNtNtCs5Xp1JEPGtUd_17fossil_headers_db5mocks50___mock_MockEthereumRpcProvider_EthereumRpcProvider26___get_full_block_by_numberNtB6_6Common4withpppEBc_
FN:61,_RINvMs4_NtNtNtCs5Xp1JEPGtUd_17fossil_headers_db5mocks50___mock_MockEthereumRpcProvider_EthereumRpcProvider26___get_full_block_by_numberNtB6_6Common5timespEBc_
FN:61,_RINvMs4_NtNtNtCs5Xp1JEPGtUd_17fossil_headers_db5mocks50___mock_MockEthereumRpcProvider_EthereumRpcProvider26___get_full_block_by_numberNtB6_6Common5withfpEBc_
FN:61,_RINvMs4_NtNtNtCs5Xp1JEPGtUd_17fossil_headers_db5mocks50___mock_MockEthereumRpcProvider_EthereumRpcProvider26___get_full_block_by_numberNtB6_6Common8withf_stpEBc_
FN:61,_RINvMs4_NtNtNtCs5Xp1JEPGtUd_17fossil_headers_db5mocks50___mock_MockEthereumRpcProvider_EthereumRpcProvider34___get_latest_finalized_blocknumberNtB6_6Common4withpEBc_
FN:61,_RINvMs4_NtNtNtCs5Xp1JEPGtUd_17fossil_headers_db5mocks50___mock_MockEthereumRpcProvider_EthereumRpcProvider34___get_latest_finalized_blocknumberNtB6_6Common5timespEBc_
FN:61,_RINvMs4_NtNtNtCs5Xp1JEPGtUd_17fossil_headers_db5mocks50___mock_MockEthereumRpcProvider_EthereumRpcProvider34___get_latest_finalized_blocknumberNtB6_6Common5withfpEBc_
FN:61,_RINvMs4_NtNtNtCs5Xp1JEPGtUd_17fossil_headers_db5mocks50___mock_MockEthereumRpcProvider_EthereumRpcProvider34___get_latest_finalized_blocknumberNtB6_6Common8withf_stpEBc_
FN:97,_RINvMs6_NtNtNtCs5Xp1JEPGtUd_17fossil_headers_db5mocks44___mock_MockDatabaseProvider_DatabaseProvider14___block_existsNtB6_11Expectation11return_oncepEBc_
FN:97,_RINvMs6_NtNtNtCs5Xp1JEPGtUd_17fossil_headers_db5mocks44___mock_MockDatabaseProvider_DatabaseProvider14___block_existsNtB6_11Expectation12return_constpEBc_
FN:97,_RINvMs6_NtNtNtCs5Xp1JEPGtUd_17fossil_headers_db5mocks44___mock_MockDatabaseProvider_DatabaseProvider14___block_existsNtB6_11Expectation12returning_stpEBc_
FN:97,_RINvMs6_NtNtNtCs5Xp1JEPGtUd_17fossil_headers_db5mocks44___mock_MockDatabaseProvider_DatabaseProvider14___block_existsNtB6_11Expectation14return_once_stpEBc_
FN:97,_RINvMs6_NtNtNtCs5Xp1JEPGtUd_17fossil_headers_db5mocks44___mock_MockDatabaseProvider_DatabaseProvider14___block_existsNtB6_11Expectation15return_const_stpEBc_
FN:97,_RINvMs6_NtNtNtCs5Xp1JEPGtUd_17fossil_headers_db5mocks44___mock_MockDatabaseProvider_DatabaseProvider14___block_existsNtB6_11Expectation4withpEBc_
FN:97,_RINvMs6_NtNtNtCs5Xp1JEPGtUd_17fossil_headers_db5mocks44___mock_MockDatabaseProvider_DatabaseProvider14___block_existsNtB6_11Expectation5timespEBc_
FN:97,_RINvMs6_NtNtNtCs5Xp1JEPGtUd_17fossil_headers_db5mocks44___mock_MockDatabaseProvider_DatabaseProvider14___block_existsNtB6_11Expectation5withfpEBc_
FN:97,_RINvMs6_NtNtNtCs5Xp1JEPGtUd_17fossil_headers_db5mocks44___mock_MockDatabaseProvider_DatabaseProvider14___block_existsNtB6_11Expectation8withf_stpEBc_
FN:97,_RINvMs6_NtNtNtCs5Xp1JEPGtUd_17fossil_headers_db5mocks44___mock_MockDatabaseProvider_DatabaseProvider14___block_existsNtB6_11Expectation9returningpEBc_
FN:97,_RINvMs6_NtNtNtCs5Xp1JEPGtUd_17fossil_headers_db5mocks44___mock_MockDatabaseProvider_DatabaseProvider16___find_first_gapNtB6_11Expectation11return_oncepEBc_
FN:97,_RINvMs6_NtNtNtCs5Xp1JEPGtUd_17fossil_headers_db5mocks44___mock_MockDatabaseProvider_DatabaseProvider16___find_first_gapNtB6_11Expectation12return_constpEBc_
FN:97,_RINvMs6_NtNtNtCs5Xp1JEPGtUd_17fossil_headers_db5mocks44___mock_MockDatabaseProvider_DatabaseProvider16___find_first_gapNtB6_11Expectation12returning_stpEBc_
FN:97,_RINvMs6_NtNtNtCs5Xp1JEPGtUd_17fossil_headers_db5mocks44___mock_MockDatabaseProvider_DatabaseProvider16___find_first_gapNtB6_11Expectation14return_once_stpEBc_
FN:97,_RINvMs6_NtNtNtCs5Xp1JEPGtUd_17fossil_headers_db5mocks44___mock_MockDatabaseProvider_DatabaseProvider16___find_first_gapNtB6_11Expectation15return_const_stpEBc_
FN:97,_RINvMs6_NtNtNtCs5Xp1JEPGtUd_17fossil_headers_db5mocks44___mock_MockDatabaseProvider_DatabaseProvider16___find_first_gapNtB6_11Expectation4withppEBc_
FN:97,_RINvMs6_NtNtNtCs5Xp1JEPGtUd_17fossil_headers_db5mocks44___mock_MockDatabaseProvider_DatabaseProvider16___find_first_gapNtB6_11Expectation5timespEBc_
FN:97,_RINvMs6_NtNtNtCs5Xp1JEPGtUd_17fossil_headers_db5mocks44___mock_MockDatabaseProvider_DatabaseProvider16___find_first_gapNtB6_11Expectation5withfpEBc_
FN:97,_RINvMs6_NtNtNtCs5Xp1JEPGtUd_17fossil_headers_db5mocks44___mock_MockDatabaseProvider_DatabaseProvider16___find_first_gapNtB6_11Expectation8withf_stpEBc_
FN:97,_RINvMs6_NtNtNtCs5Xp1JEPGtUd_17fossil_headers_db5mocks44___mock_MockDatabaseProvider_DatabaseProvider16___find_first_gapNtB6_11Expectation9returningpEBc_
FN:97,_RINvMs6_NtNtNtCs5Xp1JEPGtUd_17fossil_headers_db5mocks44___mock_MockDatabaseProvider_DatabaseProvider18___check_connectionNtB6_11Expectation11return_oncepEBc_
FN:97,_RINvMs6_NtNtNtCs5Xp1JEPGtUd_17fossil_headers_db5mocks44___mock_MockDatabaseProvider_DatabaseProvider18___check_connectionNtB6_11Expectation12return_constpEBc_
FN:97,_RINvMs6_NtNtNtCs5Xp1JEPGtUd_17fossil_headers_db5mocks44___mock_MockDatabaseProvider_DatabaseProvider18___check_connectionNtB6_11Expectation12returning_stpEBc_
FN:97,_RINvMs6_NtNtNtCs5Xp1JEPGtUd_17fossil_headers_db5mocks44___mock_MockDatabaseProvider_DatabaseProvider18___check_connectionNtB6_11Expectation14return_once_stpEBc_
FN:97,_RINvMs6_NtNtNtCs5Xp1JEPGtUd_17fossil_headers_db5mocks44___mock_MockDatabaseProvider_DatabaseProvider18___check_connectionNtB6_11Expectation15return_const_stpEBc_
FN:97,_RINvMs6_NtNtNtCs5Xp1JEPGtUd_17fossil_headers_db5mocks44___mock_MockDatabaseProvider_DatabaseProvider18___check_connectionNtB6_11Expectation5timespEBc_
FN:97,_RINvMs6_NtNtNtCs5Xp1JEPGtUd_17fossil_headers_db5mocks44___mock_MockDatabaseProvider_DatabaseProvider18___check_connectionNtB6_11Expectation5withfpEBc_
FN:97,_RINvMs6_NtNtNtCs5Xp1JEPGtUd_17fossil_headers_db5mocks44___mock_MockDatabaseProvider_DatabaseProvider18___check_connectionNtB6_11Expectation8withf_stpEBc_
FN:97,_RINvMs6_NtNtNtCs5Xp1JEPGtUd_17fossil_headers_db5mocks44___mock_MockDatabaseProvider_DatabaseProvider18___check_connectionNtB6_11Expectation9returningpEBc_
FN:97,_RINvMs6_NtNtNtCs5Xp1JEPGtUd_17fossil_headers_db5mocks44___mock_MockDatabaseProvider_DatabaseProvider21___insert_block_headerNtB6_11Expectation11return_oncepEBc_
FN:97,_RINvMs6_NtNtNtCs5Xp1JEPGtUd_17fossil_headers_db5mocks44___mock_MockDatabaseProvider_DatabaseProvider21___insert_block_headerNtB6_11Expectation12return_constpEBc_
FN:97,_RINvMs6_NtNtNtCs5Xp1JEPGtUd_17fossil_headers_db5mocks44___mock_MockDatabaseProvider_DatabaseProvider21___insert_block_headerNtB6_11Expectation12returning_stpEBc_
FN:97,_RINvMs6_NtNtNtCs5Xp1JEPGtUd_17fossil_headers_db5mocks44___mock_MockDatabaseProvider_DatabaseProvider21___insert_block_headerNtB6_11Expectation14return_once_stpEBc_
FN:97,_RINvMs6_NtNtNtCs5Xp1JEPGtUd_17fossil_headers_db5mocks44___mock_MockDatabaseProvider_DatabaseProvider21___insert_block_headerNtB6_11Expectation15return_const_stpEBc_
FN:97,_RINvMs6_NtNtNtCs5Xp1JEPGtUd_17fossil_headers_db5mocks44___mock_MockDatabaseProvider_DatabaseProvider21___insert_block_headerNtB6_11Expectation4withppEBc_
FN:97,_RINvMs6_NtNtNtCs5Xp1JEPGtUd_17fossil_headers_db5mocks44___mock_MockDatabaseProvider_DatabaseProvider21___insert_block_headerNtB6_11Expectation5timespEBc_
FN:97,_RINvMs6_NtNtNtCs5Xp1JEPGtUd_17fossil_headers_db5mocks44___mock_MockDatabaseProvider_DatabaseProvider21___insert_block_headerNtB6_11Expectation5withfpEBc_
FN:97,_RINvMs6_NtNtNtCs5Xp1JEPGtUd_17fossil_headers_db5mocks44___mock_MockDatabaseProvider_DatabaseProvider21___insert_block_headerNtB6_11Expectation8withf_stpEBc_
FN:97,_RINvMs6_NtNtNtCs5Xp1JEPGtUd_17fossil_headers_db5mocks44___mock_MockDatabaseProvider_DatabaseProvider21___insert_block_headerNtB6_11Expectation9returningpEBc_
FN:97,_RINvMs6_NtNtNtCs5Xp1JEPGtUd_17fossil_headers_db5mocks44___mock_MockDatabaseProvider_DatabaseProvider29___get_last_stored_blocknumberNtB6_11Expectation11return_oncepEBc_
FN:97,_RINvMs6_NtNtNtCs5Xp1JEPGtUd_17fossil_headers_db5mocks44___mock_MockDatabaseProvider_DatabaseProvider29___get_last_stored_blocknumberNtB6_11Expectation12return_constpEBc_
FN:97,_RINvMs6_NtNtNtCs5Xp1JEPGtUd_17fossil_headers_db5mocks44___mock_MockDatabaseProvider_DatabaseProvider29___get_last_stored_blocknumberNtB6_11Expectation12returning_stpEBc_
FN:97,_RINvMs6_NtNtNtCs5Xp1JEPGtUd_17fossil_headers_db5mocks44___mock_MockDatabaseProvider_DatabaseProvider29___get_last_stored_blocknumberNtB6_11Expectation14return_once_stpEBc_
FN:97,_RINvMs6_NtNtNtCs5Xp1JEPGtUd_17fossil_headers_db5mocks44___mock_MockDatabaseProvider_DatabaseProvider29___get_last_stored_blocknumberNtB6_11Expectation15return_const_stpEBc_
FN:97,_RINvMs6_NtNtNtCs5Xp1JEPGtUd_17fossil_headers_db5mocks44___mock_MockDatabaseProvider_DatabaseProvider29___get_last_stored_blocknumberNtB6_11Expectation5timespEBc_
FN:97,_RINvMs6_NtNtNtCs5Xp1JEPGtUd_17fossil_headers_db5mocks44___mock_MockDatabaseProvider_DatabaseProvider29___get_last_stored_blocknumberNtB6_11Expectation5withfpEBc_
FN:97,_RINvMs6_NtNtNtCs5Xp1JEPGtUd_17fossil_headers_db5mocks44___mock_MockDatabaseProvider_DatabaseProvider29___get_last_stored_blocknumberNtB6_11Expectation8withf_stpEBc_
FN:97,_RINvMs6_NtNtNtCs5Xp1JEPGtUd_17fossil_headers_db5mocks44___mock_MockDatabaseProvider_DatabaseProvider29___get_last_stored_blocknumberNtB6_11Expectation9returningpEBc_
FN:61,_RINvMs6_NtNtNtCs5Xp1JEPGtUd_17fossil_headers_db5mocks50___mock_MockEthereumRpcProvider_EthereumRpcProvider26___get_full_block_by_numberNtB6_11Expectation11return_oncepEBc_
FN:61,_RINvMs6_NtNtNtCs5Xp1JEPGtUd_17fossil_headers_db5mocks50___mock_MockEthereumRpcProvider_EthereumRpcProvider26___get_full_block_by_numberNtB6_11Expectation12return_constpEBc_
FN:61,_RINvMs6_NtNtNtCs5Xp1JEPGtUd_17fossil_headers_db5mocks50___mock_MockEthereumRpcProvider_EthereumRpcProvider26___get_full_block_by_numberNtB6_11Expectation12returning_stpEBc_
FN:61,_RINvMs6_NtNtNtCs5Xp1JEPGtUd_17fossil_headers_db5mocks50___mock_MockEthereumRpcProvider_EthereumRpcProvider26___get_full_block_by_numberNtB6_11Expectation14return_once_stpEBc_
FN:61,_RINvMs6_NtNtNtCs5Xp1JEPGtUd_17fossil_headers_db5mocks50___mock_MockEthereumRpcProvider_EthereumRpcProvider26___get_full_block_by_numberNtB6_11Expectation15return_const_stpEBc_
FN:61,_RINvMs6_NtNtNtCs5Xp1JEPGtUd_17fossil_headers_db5mocks50___mock_MockEthereumRpcProvider_EthereumRpcProvider26___get_full_block_by_numberNtB6_11Expectation4withpppEBc_
FN:61,_RINvMs6_NtNtNtCs5Xp1JEPGtUd_17fossil_headers_db5mocks50___mock_MockEthereumRpcProvider_EthereumRpcProvider26___get_full_block_by_numberNtB6_11Expectation5timespEBc_
FN:61,_RINvMs6_NtNtNtCs5Xp1JEPGtUd_17fossil_headers_db5mocks50___mock_MockEthereumRpcProvider_EthereumRpcProvider26___get_full_block_by_numberNtB6_11Expectation5withfpEBc_
FN:61,_RINvMs6_NtNtNtCs5Xp1JEPGtUd_17fossil_headers_db5mocks50___mock_MockEthereumRpcProvider_EthereumRpcProvider26___get_full_block_by_numberNtB6_11Expectation8withf_stpEBc_
FN:61,_RINvMs6_NtNtNtCs5Xp1JEPGtUd_17fossil_headers_db5mocks50___mock_MockEthereumRpcProvider_EthereumRpcProvider26___get_full_block_by_numberNtB6_11Expectation9returningpEBc_
FN:61,_RINvMs6_NtNtNtCs5Xp1JEPGtUd_17fossil_headers_db5mocks50___mock_MockEthereumRpcProvider_EthereumRpcProvider34___get_latest_finalized_blocknumberNtB6_11Expectation11return_oncepEBc_
FN:61,_RINvMs6_NtNtNtCs5Xp1JEPGtUd_17fossil_headers_db5mocks50___mock_MockEthereumRpcProvider_EthereumRpcProvider34___get_latest_finalized_blocknumberNtB6_11Expectation12return_constpEBc_
FN:61,_RINvMs6_NtNtNtCs5Xp1JEPGtUd_17fossil_headers_db5mocks50___mock_MockEthereumRpcProvider_EthereumRpcProvider34___get_latest_finalized_blocknumberNtB6_11Expectation12returning_stpEBc_
FN:61,_RINvMs6_NtNtNtCs5Xp1JEPGtUd_17fossil_headers_db5mocks50___mock_MockEthereumRpcProvider_EthereumRpcProvider34___get_latest_finalized_blocknumberNtB6_11Expectation14return_once_stpEBc_
FN:61,_RINvMs6_NtNtNtCs5Xp1JEPGtUd_17fossil_headers_db5mocks50___mock_MockEthereumRpcProvider_EthereumRpcProvider34___get_latest_finalized_blocknumberNtB6_11Expectation15return_const_stpEBc_
FN:61,_RINvMs6_NtNtNtCs5Xp1JEPGtUd_17fossil_headers_db5mocks50___mock_MockEthereumRpcProvider_EthereumRpcProvider34___get_latest_finalized_blocknumberNtB6_11Expectation4withpEBc_
FN:61,_RINvMs6_NtNtNtCs5Xp1JEPGtUd_17fossil_headers_db5mocks50___mock_MockEthereumRpcProvider_EthereumRpcProvider34___get_latest_finalized_blocknumberNtB6_11Expectation5timespEBc_
FN:61,_RINvMs6_NtNtNtCs5Xp1JEPGtUd_17fossil_headers_db5mocks50___mock_MockEthereumRpcProvider_EthereumRpcProvider34___get_latest_finalized_blocknumberNtB6_11Expectation5withfpEBc_
FN:61,_RINvMs6_NtNtNtCs5Xp1JEPGtUd_17fossil_headers_db5mocks50___mock_MockEthereumRpcProvider_EthereumRpcProvider34___get_latest_finalized_blocknumberNtB6_11Expectation8withf_stpEBc_
FN:61,_RINvMs6_NtNtNtCs5Xp1JEPGtUd_17fossil_headers_db5mocks50___mock_MockEthereumRpcProvider_EthereumRpcProvider34___get_latest_finalized_blocknumberNtB6_11Expectation9returningpEBc_
FN:97,_RNCINvMs6_NtNtNtCs5Xp1JEPGtUd_17fossil_headers_db5mocks44___mock_MockDatabaseProvider_DatabaseProvider14___block_existsNtB8_11Expectation12return_constpE0Be_
FN:97,_RNCINvMs6_NtNtNtCs5Xp1JEPGtUd_17fossil_headers_db5mocks44___mock_MockDatabaseProvider_DatabaseProvider14___block_existsNtB8_11Expectation15return_const_stpE0Be_
FN:97,_RNCINvMs6_NtNtNtCs5Xp1JEPGtUd_17fossil_headers_db5mocks44___mock_MockDatabaseProvider_DatabaseProvider16___find_first_gapNtB8_11Expectation12return_constpE0Be_
FN:97,_RNCINvMs6_NtNtNtCs5Xp1JEPGtUd_17fossil_headers_db5mocks44___mock_MockDatabaseProvider_DatabaseProvider16___find_first_gapNtB8_11Expectation15return_const_stpE0Be_
FN:97,_RNCINvMs6_NtNtNtCs5Xp1JEPGtUd_17fossil_headers_db5mocks44___mock_MockDatabaseProvider_DatabaseProvider18___check_connectionNtB8_11Expectation12return_constpE0Be_
FN:97,_RNCINvMs6_NtNtNtCs5Xp1JEPGtUd_17fossil_headers_db5mocks44___mock_MockDatabaseProvider_DatabaseProvider18___check_connectionNtB8_11Expectation15return_const_stpE0Be_
FN:97,_RNCINvMs6_NtNtNtCs5Xp1JEPGtUd_17fossil_headers_db5mocks44___mock_MockDatabaseProvider_DatabaseProvider21___insert_block_headerNtB8_11Expectation12return_constpE0Be_
FN:97,_RNCINvMs6_NtNtNtCs5Xp1JEPGtUd_17fossil_headers_db5mocks44___mock_MockDatabaseProvider_DatabaseProvider21___insert_block_headerNtB8_11Expectation15return_const_stpE0Be_
FN:97,_RNCINvMs6_NtNtNtCs5Xp1JEPGtUd_17fossil_headers_db5mocks44___mock_MockDatabaseProvider_DatabaseProvider29___get_last_stored_blocknumberNtB8_11Expectation12return_constpE0Be_
FN:97,_RNCINvMs6_NtNtNtCs5Xp1JEPGtUd_17fossil_headers_db5mocks44___mock_MockDatabaseProvider_DatabaseProvider29___get_last_stored_blocknumberNtB8_11Expectation15return_const_stpE0Be_
FN:61,_RNCINvMs6_NtNtNtCs5Xp1JEPGtUd_17fossil_headers_db5mocks50___mock_MockEthereumRpcProvider_EthereumRpcProvider26___get_full_block_by_numberNtB8_11Expectation12return_constpE0Be_
FN:61,_RNCINvMs6_NtNtNtCs5Xp1JEPGtUd_17fossil_headers_db5mocks50___mock_MockEthereumRpcProvider_EthereumRpcProvider26___get_full_block_by_numberNtB8_11Expectation15return_const_stpE0Be_
FN:61,_RNCINvMs6_NtNtNtCs5Xp1JEPGtUd_17fossil_headers_db5mocks50___mock_MockEthereumRpcProvider_EthereumRpcProvider34___get_latest_finalized_blocknumberNtB8_11Expectation12return_constpE0Be_
FN:61,_RNCINvMs6_NtNtNtCs5Xp1JEPGtUd_17fossil_headers_db5mocks50___mock_MockEthereumRpcProvider_EthereumRpcProvider34___get_latest_finalized_blocknumberNtB8_11Expectation15return_const_stpE0Be_
FN:97,_RNCNvMs0_NtNtNtCs5Xp1JEPGtUd_17fossil_headers_db5mocks44___mock_MockDatabaseProvider_DatabaseProvider14___block_existsNtB7_7Matcher7matches0Bd_
FN:97,_RNCNvMs0_NtNtNtCs5Xp1JEPGtUd_17fossil_headers_db5mocks44___mock_MockDatabaseProvider_DatabaseProvider16___find_first_gapNtB7_7Matcher7matches0Bd_
FN:97,_RNCNvMs0_NtNtNtCs5Xp1JEPGtUd_17fossil_headers_db5mocks44___mock_MockDatabaseProvider_DatabaseProvider18___check_connectionNtB7_7Matcher7matches0Bd_
FN:97,_RNCNvMs0_NtNtNtCs5Xp1JEPGtUd_17fossil_headers_db5mocks44___mock_MockDatabaseProvider_DatabaseProvider21___insert_block_headerNtB7_7Matcher7matches0Bd_
FN:97,_RNCNvMs0_NtNtNtCs5Xp1JEPGtUd_17fossil_headers_db5mocks44___mock_MockDatabaseProvider_DatabaseProvider29___get_last_stored_blocknumberNtB7_7Matcher7matches0Bd_
FN:61,_RNCNvMs0_NtNtNtCs5Xp1JEPGtUd_17fossil_headers_db5mocks50___mock_MockEthereumRpcProvider_EthereumRpcProvider26___get_full_block_by_numberNtB7_7Matcher7matches0Bd_
FN:61,_RNCNvMs0_NtNtNtCs5Xp1JEPGtUd_17fossil_headers_db5mocks50___mock_MockEthereumRpcProvider_EthereumRpcProvider34___get_latest_finalized_blocknumberNtB7_7Matcher7matches0Bd_
FN:97,_RNCNvMsa_NtNtNtCs5Xp1JEPGtUd_17fossil_headers_db5mocks44___mock_MockDatabaseProvider_DatabaseProvider14___block_existsNtB7_12Expectations4call0Bd_
FN:97,_RNCNvMsa_NtNtNtCs5Xp1JEPGtUd_17fossil_headers_db5mocks44___mock_MockDatabaseProvider_DatabaseProvider14___block_existsNtB7_12Expectations4calls_0Bd_
FN:97,_RNCNvMsa_NtNtNtCs5Xp1JEPGtUd_17fossil_headers_db5mocks44___mock_MockDatabaseProvider_DatabaseProvider16___find_first_gapNtB7_12Expectations4call0Bd_
FN:97,_RNCNvMsa_NtNtNtCs5Xp1JEPGtUd_17fossil_headers_db5mocks44___mock_MockDatabaseProvider_DatabaseProvider16___find_first_gapNtB7_12Expectations4calls_0Bd_
FN:97,_RNCNvMsa_NtNtNtCs5Xp1JEPGtUd_17fossil_headers_db5mocks44___mock_MockDatabaseProvider_DatabaseProvider18___check_connectionNtB7_12Expectations4call0Bd_
FN:97,_RNCNvMsa_NtNtNtCs5Xp1JEPGtUd_17fossil_headers_db5mocks44___mock_MockDatabaseProvider_DatabaseProvider18___check_connectionNtB7_12Expectations4calls_0Bd_
FN:97,_RNCNvMsa_NtNtNtCs5Xp1JEPGtUd_17fossil_headers_db5mocks44___mock_MockDatabaseProvider_DatabaseProvider21___insert_block_headerNtB7_12Expectations4call0Bd_
FN:97,_RNCNvMsa_NtNtNtCs5Xp1JEPGtUd_17fossil_headers_db5mocks44___mock_MockDatabaseProvider_DatabaseProvider21___insert_block_headerNtB7_12Expectations4calls_0Bd_
FN:97,_RNCNvMsa_NtNtNtCs5Xp1JEPGtUd_17fossil_headers_db5mocks44___mock_MockDatabaseProvider_DatabaseProvider29___get_last_stored_blocknumberNtB7_12Expectations4call0Bd_
FN:97,_RNCNvMsa_NtNtNtCs5Xp1JEPGtUd_17fossil_headers_db5mocks44___mock_MockDatabaseProvider_DatabaseProvider29___get_last_stored_blocknumberNtB7_12Expectations4calls_0Bd_
FN:61,_RNCNvMsa_NtNtNtCs5Xp1JEPGtUd_17fossil_headers_db5mocks50___mock_MockEthereumRpcProvider_EthereumRpcProvider26___get_full_block_by_numberNtB7_12Expectations4call0Bd_
FN:61,_RNCNvMsa_NtNtNtCs5Xp1JEPGtUd_17fossil_headers_db5mocks50___mock_MockEthereumRpcProvider_EthereumRpcProvider26___get_full_block_by_numberNtB7_12Expectations4calls_0Bd_
FN:61,_RNCNvMsa_NtNtNtCs5Xp1JEPGtUd_17fossil_headers_db5mocks50___mock_MockEthereumRpcProvider_EthereumRpcProvider34___get_latest_finalized_blocknumberNtB7_12Expectations4call0Bd_
FN:61,_RNCNvMsa_NtNtNtCs5Xp1JEPGtUd_17fossil_headers_db5mocks50___mock_MockEthereumRpcProvider_EthereumRpcProvider34___get_latest_finalized_blocknumberNtB7_12Expectations4calls_0Bd_
FN:55,_RNCNvXs2_NtCs5Xp1JEPGtUd_17fossil_headers_db5mocksNtB7_23MockEthereumRpcProviderNtNtB9_3rpc19EthereumRpcProvider24get_full_block_by_number0B9_
FN:53,_RNCNvXs2_NtCs5Xp1JEPGtUd_17fossil_headers_db5mocksNtB7_23MockEthereumRpcProviderNtNtB9_3rpc19EthereumRpcProvider32get_latest_finalized_blocknumber0B9_
FN:97,_RNCNvXs9_NtCs5Xp1JEPGtUd_17fossil_headers_db5mocksNtB7_20MockDatabaseProviderNtB7_16DatabaseProvider12block_exists0B9_
FN:97,_RNCNvXs9_NtCs5Xp1JEPGtUd_17fossil_headers_db5mocksNtB7_20MockDatabaseProviderNtB7_16DatabaseProvider14find_first_gap0B9_
FN:97,_RNCNvXs9_NtCs5Xp1JEPGtUd_17fossil_headers_db5mocksNtB7_20MockDatabaseProviderNtB7_16DatabaseProvider16check_connection0B9_
FN:97,_RNCNvXs9_NtCs5Xp1JEPGtUd_17fossil_headers_db5mocksNtB7_20MockDatabaseProviderNtB7_16DatabaseProvider19insert_block_header0B9_
FN:97,_RNCNvXs9_NtCs5Xp1JEPGtUd_17fossil_headers_db5mocksNtB7_20MockDatabaseProviderNtB7_16DatabaseProvider27get_last_stored_blocknumber0B9_
FN:97,_RNvMNtNtNtCs5Xp1JEPGtUd_17fossil_headers_db5mocks44___mock_MockDatabaseProvider_DatabaseProvider14___block_existsNtB2_5Rfunc8call_mut
FN:97,_RNvMNtNtNtCs5Xp1JEPGtUd_17fossil_headers_db5mocks44___mock_MockDatabaseProvider_DatabaseProvider16___find_first_gapNtB2_5Rfunc8call_mut
FN:97,_RNvMNtNtNtCs5Xp1JEPGtUd_17fossil_headers_db5mocks44___mock_MockDatabaseProvider_DatabaseProvider18___check_connectionNtB2_5Rfunc8call_mut
FN:97,_RNvMNtNtNtCs5Xp1JEPGtUd_17fossil_headers_db5mocks44___mock_MockDatabaseProvider_DatabaseProvider21___insert_block_headerNtB2_5Rfunc8call_mut
FN:97,_RNvMNtNtNtCs5Xp1JEPGtUd_17fossil_headers_db5mocks44___mock_MockDatabaseProvider_DatabaseProvider29___get_last_stored_blocknumberNtB2_5Rfunc8call_mut
FN:61,_RNvMNtNtNtCs5Xp1JEPGtUd_17fossil_headers_db5mocks50___mock_MockEthereumRpcProvider_EthereumRpcProvider26___get_full_block_by_numberNtB2_5Rfunc8call_mut
FN:61,_RNvMNtNtNtCs5Xp1JEPGtUd_17fossil_headers_db5mocks50___mock_MockEthereumRpcProvider_EthereumRpcProvider34___get_latest_finalized_blocknumberNtB2_5Rfunc8call_mut
FN:61,_RNvMs0_NtCs5Xp1JEPGtUd_17fossil_headers_db5mocksNtB5_43MockEthereumRpcProvider_EthereumRpcProvider10checkpoint
FN:97,_RNvMs0_NtNtNtCs5Xp1JEPGtUd_17fossil_headers_db5mocks44___mock_MockDatabaseProvider_DatabaseProvider14___block_existsNtB5_7Matcher7matches
FN:97,_RNvMs0_NtNtNtCs5Xp1JEPGtUd_17fossil_headers_db5mocks44___mock_MockDatabaseProvider_DatabaseProvider16___find_first_gapNtB5_7Matcher7matches
FN:97,_RNvMs0_NtNtNtCs5Xp1JEPGtUd_17fossil_headers_db5mocks44___mock_MockDatabaseProvider_DatabaseProvider18___check_connectionNtB5_7Matcher7matches
FN:97,_RNvMs0_NtNtNtCs5Xp1JEPGtUd_17fossil_headers_db5mocks44___mock_MockDatabaseProvider_DatabaseProvider21___insert_block_headerNtB5_7Matcher7matches
FN:97,_RNvMs0_NtNtNtCs5Xp1JEPGtUd_17fossil_headers_db5mocks44___mock_MockDatabaseProvider_DatabaseProvider29___get_last_stored_blocknumberNtB5_7Matcher7matches
FN:61,_RNvMs0_NtNtNtCs5Xp1JEPGtUd_17fossil_headers_db5mocks50___mock_MockEthereumRpcProvider_EthereumRpcProvider26___get_full_block_by_numberNtB5_7Matcher7matches
FN:61,_RNvMs0_NtNtNtCs5Xp1JEPGtUd_17fossil_headers_db5mocks50___mock_MockEthereumRpcProvider_EthereumRpcProvider34___get_latest_finalized_blocknumberNtB5_7Matcher7matches
FN:61,_RNvMs1_NtCs5Xp1JEPGtUd_17fossil_headers_db5mocksNtB5_23MockEthereumRpcProvider10checkpoint
FN:61,_RNvMs1_NtCs5Xp1JEPGtUd_17fossil_headers_db5mocksNtB5_23MockEthereumRpcProvider3new
FN:61,_RNvMs3_NtCs5Xp1JEPGtUd_17fossil_headers_db5mocksNtB5_23MockEthereumRpcProvider31expect_get_full_block_by_number
FN:61,_RNvMs3_NtCs5Xp1JEPGtUd_17fossil_headers_db5mocksNtB5_23MockEthereumRpcProvider39expect_get_latest_finalized_blocknumber
FN:97,_RNvMs4_NtNtNtCs5Xp1JEPGtUd_17fossil_headers_db5mocks44___mock_MockDatabaseProvider_DatabaseProvider14___block_existsNtB5_6Common11in_sequence
FN:97,_RNvMs4_NtNtNtCs5Xp1JEPGtUd_17fossil_headers_db5mocks44___mock_MockDatabaseProvider_DatabaseProvider14___block_existsNtB5_6Common15verify_sequence
FN:97,_RNvMs4_NtNtNtCs5Xp1JEPGtUd_17fossil_headers_db5mocks44___mock_MockDatabaseProvider_DatabaseProvider14___block_existsNtB5_6Common16satisfy_sequence
FN:97,_RNvMs4_NtNtNtCs5Xp1JEPGtUd_17fossil_headers_db5mocks44___mock_MockDatabaseProvider_DatabaseProvider14___block_existsNtB5_6Common4call
FN:97,_RNvMs4_NtNtNtCs5Xp1JEPGtUd_17fossil_headers_db5mocks44___mock_MockDatabaseProvider_DatabaseProvider14___block_existsNtB5_6Common5never
FN:97,_RNvMs4_NtNtNtCs5Xp1JEPGtUd_17fossil_headers_db5mocks44___mock_MockDatabaseProvider_DatabaseProvider14___block_existsNtB5_6Common7is_done
FN:97,_RNvMs4_NtNtNtCs5Xp1JEPGtUd_17fossil_headers_db5mocks44___mock_MockDatabaseProvider_DatabaseProvider14___block_existsNtB5_6Common7matches
FN:97,_RNvMs4_NtNtNtCs5Xp1JEPGtUd_17fossil_headers_db5mocks44___mock_MockDatabaseProvider_DatabaseProvider16___find_first_gapNtB5_6Common11in_sequence
FN:97,_RNvMs4_NtNtNtCs5Xp1JEPGtUd_17fossil_headers_db5mocks44___mock_MockDatabaseProvider_DatabaseProvider16___find_first_gapNtB5_6Common15verify_sequence
FN:97,_RNvMs4_NtNtNtCs5Xp1JEPGtUd_17fossil_headers_db5mocks44___mock_MockDatabaseProvider_DatabaseProvider16___find_first_gapNtB5_6Common16satisfy_sequence
FN:97,_RNvMs4_NtNtNtCs5Xp1JEPGtUd_17fossil_headers_db5mocks44___mock_MockDatabaseProvider_DatabaseProvider16___find_first_gapNtB5_6Common4call
FN:97,_RNvMs4_NtNtNtCs5Xp1JEPGtUd_17fossil_headers_db5mocks44___mock_MockDatabaseProvider_DatabaseProvider16___find_first_gapNtB5_6Common5never
FN:97,_RNvMs4_NtNtNtCs5Xp1JEPGtUd_17fossil_headers_db5mocks44___mock_MockDatabaseProvider_DatabaseProvider16___find_first_gapNtB5_6Common7is_done
FN:97,_RNvMs4_NtNtNtCs5Xp1JEPGtUd_17fossil_headers_db5mocks44___mock_MockDatabaseProvider_DatabaseProvider16___find_first_gapNtB5_6Common7matches
FN:97,_RNvMs4_NtNtNtCs5Xp1JEPGtUd_17fossil_headers_db5mocks44___mock_MockDatabaseProvider_DatabaseProvider18___check_connectionNtB5_6Common11in_sequence
FN:97,_RNvMs4_NtNtNtCs5Xp1JEPGtUd_17fossil_headers_db5mocks44___mock_MockDatabaseProvider_DatabaseProvider18___check_connectionNtB5_6Common15verify_sequence
FN:97,_RNvMs4_NtNtNtCs5Xp1JEPGtUd_17fossil_headers_db5mocks44___mock_MockDatabaseProvider_DatabaseProvider18___check_connectionNtB5_6Common16satisfy_sequence
FN:97,_RNvMs4_NtNtNtCs5Xp1JEPGtUd_17fossil_headers_db5mocks44___mock_MockDatabaseProvider_DatabaseProvider18___check_connectionNtB5_6Common4call
FN:97,_RNvMs4_NtNtNtCs5Xp1JEPGtUd_17fossil_headers_db5mocks44___mock_MockDatabaseProvider_DatabaseProvider18___check_connectionNtB5_6Common4with
FN:97,_RNvMs4_NtNtNtCs5Xp1JEPGtUd_17fossil_headers_db5mocks44___mock_MockDatabaseProvider_DatabaseProvider18___check_connectionNtB5_6Common5never
FN:97,_RNvMs4_NtNtNtCs5Xp1JEPGtUd_17fossil_headers_db5mocks44___mock_MockDatabaseProvider_DatabaseProvider18___check_connectionNtB5_6Common7is_done
FN:97,_RNvMs4_NtNtNtCs5Xp1JEPGtUd_17fossil_headers_db5mocks44___mock_MockDatabaseProvider_DatabaseProvider18___check_connectionNtB5_6Common7matches
FN:97,_RNvMs4_NtNtNtCs5Xp1JEPGtUd_17fossil_headers_db5mocks44___mock_MockDatabaseProvider_DatabaseProvider21___insert_block_headerNtB5_6Common11in_sequence
FN:97,_RNvMs4_NtNtNtCs5Xp1JEPGtUd_17fossil_headers_db5mocks44___mock_MockDatabaseProvider_DatabaseProvider21___insert_block_headerNtB5_6Common15verify_sequence
FN:97,_RNvMs4_NtNtNtCs5Xp1JEPGtUd_17fossil_headers_db5mocks44___mock_MockDatabaseProvider_DatabaseProvider21___insert_block_headerNtB5_6Common16satisfy_sequence
FN:97,_RNvMs4_NtNtNtCs5Xp1JEPGtUd_17fossil_headers_db5mocks44___mock_MockDatabaseProvider_DatabaseProvider21___insert_block_headerNtB5_6Common4call
FN:97,_RNvMs4_NtNtNtCs5Xp1JEPGtUd_17fossil_headers_db5mocks44___mock_MockDatabaseProvider_DatabaseProvider21___insert_block_headerNtB5_6Common5never
FN:97,_RNvMs4_NtNtNtCs5Xp1JEPGtUd_17fossil_headers_db5mocks44___mock_MockDatabaseProvider_DatabaseProvider21___insert_block_headerNtB5_6Common7is_done
FN:97,_RNvMs4_NtNtNtCs5Xp1JEPGtUd_17fossil_headers_db5mocks44___mock_MockDatabaseProvider_DatabaseProvider21___insert_block_headerNtB5_6Common7matches
FN:97,_RNvMs4_NtNtNtCs5Xp1JEPGtUd_17fossil_headers_db5mocks44___mock_MockDatabaseProvider_DatabaseProvider29___get_last_stored_blocknumberNtB5_6Common11in_sequence
FN:97,_RNvMs4_NtNtNtCs5Xp1JEPGtUd_17fossil_headers_db5mocks44___mock_MockDatabaseProvider_DatabaseProvider29___get_last_stored_blocknumberNtB5_6Common15verify_sequence
FN:97,_RNvMs4_NtNtNtCs5Xp1JEPGtUd_17fossil_headers_db5mocks44___mock_MockDatabaseProvider_DatabaseProvider29___get_last_stored_blocknumberNtB5_6Common16satisfy_sequence
FN:97,_RNvMs4_NtNtNtCs5Xp1JEPGtUd_17fossil_headers_db5mocks44___mock_MockDatabaseProvider_DatabaseProvider29___get_last_stored_blocknumberNtB5_6Common4call
FN:97,_RNvMs4_NtNtNtCs5Xp1JEPGtUd_17fossil_headers_db5mocks44___mock_MockDatabaseProvider_DatabaseProvider29___get_last_stored_blocknumberNtB5_6Common4with
FN:97,_RNvMs4_NtNtNtCs5Xp1JEPGtUd_17fossil_headers_db5mocks44___mock_MockDatabaseProvider_DatabaseProvider29___get_last_stored_blocknumberNtB5_6Common5never
FN:97,_RNvMs4_NtNtNtCs5Xp1JEPGtUd_17fossil_headers_db5mocks44___mock_MockDatabaseProvider_DatabaseProvider29___get_last_stored_blocknumberNtB5_6Common7is_done
FN:97,_RNvMs4_NtNtNtCs5Xp1JEPGtUd_17fossil_headers_db5mocks44___mock_MockDatabaseProvider_DatabaseProvider29___get_last_stored_blocknumberNtB5_6Common7matches
FN:61,_RNvMs4_NtNtNtCs5Xp1JEPGtUd_17fossil_headers_db5mocks50___mock_MockEthereumRpcProvider_EthereumRpcProvider26___get_full_block_by_numberNtB5_6Common11in_sequence
FN:61,_RNvMs4_NtNtNtCs5Xp1JEPGtUd_17fossil_headers_db5mocks50___mock_MockEthereumRpcProvider_EthereumRpcProvider26___get_full_block_by_numberNtB5_6Common15verify_sequence
FN:61,_RNvMs4_NtNtNtCs5Xp1JEPGtUd_17fossil_headers_db5mocks50___mock_MockEthereumRpcProvider_EthereumRpcProvider26___get_full_block_by_numberNtB5_6Common16satisfy_sequence
FN:61,_RNvMs4_NtNtNtCs5Xp1JEPGtUd_17fossil_headers_db5mocks50___mock_MockEthereumRpcProvider_EthereumRpcProvider26___get_full_block_by_numberNtB5_6Common4call
FN:61,_RNvMs4_NtNtNtCs5Xp1JEPGtUd_17fossil_headers_db5mocks50___mock_MockEthereumRpcProvider_EthereumRpcProvider26___get_full_block_by_numberNtB5_6Common5never
FN:61,_RNvMs4_NtNtNtCs5Xp1JEPGtUd_17fossil_headers_db5mocks50___mock_MockEthereumRpcProvider_EthereumRpcProvider26___get_full_block_by_numberNtB5_6Common7is_done
FN:61,_RNvMs4_NtNtNtCs5Xp1JEPGtUd_17fossil_headers_db5mocks50___mock_MockEthereumRpcProvider_EthereumRpcProvider26___get_full_block_by_numberNtB5_6Common7matches
FN:61,_RNvMs4_NtNtNtCs5Xp1JEPGtUd_17fossil_headers_db5mocks50___mock_MockEthereumRpcProvider_EthereumRpcProvider34___get_latest_finalized_blocknumberNtB5_6Common11in_sequence
FN:61,_RNvMs4_NtNtNtCs5Xp1JEPGtUd_17fossil_headers_db5mocks50___mock_MockEthereumRpcProvider_EthereumRpcProvider34___get_latest_finalized_blocknumberNtB5_6Common15verify_sequence
FN:61,_RNvMs4_NtNtNtCs5Xp1JEPGtUd_17fossil_headers_db5mocks50___mock_MockEthereumRpcProvider_EthereumRpcProvider34___get_latest_finalized_blocknumberNtB5_6Common16satisfy_sequence
FN:61,_RNvMs4_NtNtNtCs5Xp1JEPGtUd_17fossil_headers_db5mocks50___mock_MockEthereumRpcProvider_EthereumRpcProvider34___get_latest_finalized_blocknumberNtB5_6Common4call
FN:61,_RNvMs4_NtNtNtCs5Xp1JEPGtUd_17fossil_headers_db5mocks50___mock_MockEthereumRpcProvider_EthereumRpcProvider34___get_latest_finalized_blocknumberNtB5_6Common5never
FN:61,_RNvMs4_NtNtNtCs5Xp1JEPGtUd_17fossil_headers_db5mocks50___mock_MockEthereumRpcProvider_EthereumRpcProvider34___get_latest_finalized_blocknumberNtB5_6Common7is_done
FN:61,_RNvMs4_NtNtNtCs5Xp1JEPGtUd_17fossil_headers_db5mocks50___mock_MockEthereumRpcProvider_EthereumRpcProvider34___get_latest_finalized_blocknumberNtB5_6Common7matches
FN:97,_RNvMs6_NtCs5Xp1JEPGtUd_17fossil_headers_db5mocksNtB5_37MockDatabaseProvider_DatabaseProvider10checkpoint
FN:97,_RNvMs6_NtNtNtCs5Xp1JEPGtUd_17fossil_headers_db5mocks44___mock_MockDatabaseProvider_DatabaseProvider14___block_existsNtB5_11Expectation11in_sequence
FN:97,_RNvMs6_NtNtNtCs5Xp1JEPGtUd_17fossil_headers_db5mocks44___mock_MockDatabaseProvider_DatabaseProvider14___block_existsNtB5_11Expectation3new
FN:97,_RNvMs6_NtNtNtCs5Xp1JEPGtUd_17fossil_headers_db5mocks44___mock_MockDatabaseProvider_DatabaseProvider14___block_existsNtB5_11Expectation4call
FN:97,_RNvMs6_NtNtNtCs5Xp1JEPGtUd_17fossil_headers_db5mocks44___mock_MockDatabaseProvider_DatabaseProvider14___block_existsNtB5_11Expectation4once
FN:97,_RNvMs6_NtNtNtCs5Xp1JEPGtUd_17fossil_headers_db5mocks44___mock_MockDatabaseProvider_DatabaseProvider14___block_existsNtB5_11Expectation5never
FN:97,_RNvMs6_NtNtNtCs5Xp1JEPGtUd_17fossil_headers_db5mocks44___mock_MockDatabaseProvider_DatabaseProvider14___block_existsNtB5_11Expectation7is_done
FN:97,_RNvMs6_NtNtNtCs5Xp1JEPGtUd_17fossil_headers_db5mocks44___mock_MockDatabaseProvider_DatabaseProvider14___block_existsNtB5_11Expectation7matches
FN:97,_RNvMs6_NtNtNtCs5Xp1JEPGtUd_17fossil_headers_db5mocks44___mock_MockDatabaseProvider_DatabaseProvider16___find_first_gapNtB5_11Expectation11in_sequence
FN:97,_RNvMs6_NtNtNtCs5Xp1JEPGtUd_17fossil_headers_db5mocks44___mock_MockDatabaseProvider_DatabaseProvider16___find_first_gapNtB5_11Expectation3new
FN:97,_RNvMs6_NtNtNtCs5Xp1JEPGtUd_17fossil_headers_db5mocks44___mock_MockDatabaseProvider_DatabaseProvider16___find_first_gapNtB5_11Expectation4call
FN:97,_RNvMs6_NtNtNtCs5Xp1JEPGtUd_17fossil_headers_db5mocks44___mock_MockDatabaseProvider_DatabaseProvider16___find_first_gapNtB5_11Expectation4once
FN:97,_RNvMs6_NtNtNtCs5Xp1JEPGtUd_17fossil_headers_db5mocks44___mock_MockDatabaseProvider_DatabaseProvider16___find_first_gapNtB5_11Expectation5never
FN:97,_RNvMs6_NtNtNtCs5Xp1JEPGtUd_17fossil_headers_db5mocks44___mock_MockDatabaseProvider_DatabaseProvider16___find_first_gapNtB5_11Expectation7is_done
FN:97,_RNvMs6_NtNtNtCs5Xp1JEPGtUd_17fossil_headers_db5mocks44___mock_MockDatabaseProvider_DatabaseProvider16___find_first_gapNtB5_11Expectation7matches
FN:97,_RNvMs6_NtNtNtCs5Xp1JEPGtUd_17fossil_headers_db5mocks44___mock_MockDatabaseProvider_DatabaseProvider18___check_connectionNtB5_11Expectation11in_sequence
FN:97,_RNvMs6_NtNtNtCs5Xp1JEPGtUd_17fossil_headers_db5mocks44___mock_MockDatabaseProvider_DatabaseProvider18___check_connectionNtB5_11Expectation3new
FN:97,_RNvMs6_NtNtNtCs5Xp1JEPGtUd_17fossil_headers_db5mocks44___mock_MockDatabaseProvider_DatabaseProvider18___check_connectionNtB5_11Expectation4call
FN:97,_RNvMs6_NtNtNtCs5Xp1JEPGtUd_17fossil_headers_db5mocks44___mock_MockDatabaseProvider_DatabaseProvider18___check_connectionNtB5_11Expectation4once
FN:97,_RNvMs6_NtNtNtCs5Xp1JEPGtUd_17fossil_headers_db5mocks44___mock_MockDatabaseProvider_DatabaseProvider18___check_connectionNtB5_11Expectation4with
FN:97,_RNvMs6_NtNtNtCs5Xp1JEPGtUd_17fossil_headers_db5mocks44___mock_MockDatabaseProvider_DatabaseProvider18___check_connectionNtB5_11Expectation5never
FN:97,_RNvMs6_NtNtNtCs5Xp1JEPGtUd_17fossil_headers_db5mocks44___mock_MockDatabaseProvider_DatabaseProvider18___check_connectionNtB5_11Expectation7is_done
FN:97,_RNvMs6_NtNtNtCs5Xp1JEPGtUd_17fossil_headers_db5mocks44___mock_MockDatabaseProvider_DatabaseProvider18___check_connectionNtB5_11Expectation7matches
FN:97,_RNvMs6_NtNtNtCs5Xp1JEPGtUd_17fossil_headers_db5mocks44___mock_MockDatabaseProvider_DatabaseProvider21___insert_block_headerNtB5_11Expectation11in_sequence
FN:97,_RNvMs6_NtNtNtCs5Xp1JEPGtUd_17fossil_headers_db5mocks44___mock_MockDatabaseProvider_DatabaseProvider21___insert_block_headerNtB5_11Expectation3new
FN:97,_RNvMs6_NtNtNtCs5Xp1JEPGtUd_17fossil_headers_db5mocks44___mock_MockDatabaseProvider_DatabaseProvider21___insert_block_headerNtB5_11Expectation4call
FN:97,_RNvMs6_NtNtNtCs5Xp1JEPGtUd_17fossil_headers_db5mocks44___mock_MockDatabaseProvider_DatabaseProvider21___insert_block_headerNtB5_11Expectation4once
FN:97,_RNvMs6_NtNtNtCs5Xp1JEPGtUd_17fossil_headers_db5mocks44___mock_MockDatabaseProvider_DatabaseProvider21___insert_block_headerNtB5_11Expectation5never
FN:97,_RNvMs6_NtNtNtCs5Xp1JEPGtUd_17fossil_headers_db5mocks44___mock_MockDatabaseProvider_DatabaseProvider21___insert_block_headerNtB5_11Expectation7is_done
FN:97,_RNvMs6_NtNtNtCs5Xp1JEPGtUd_17fossil_headers_db5mocks44___mock_MockDatabaseProvider_DatabaseProvider21___insert_block_headerNtB5_11Expectation7matches
FN:97,_RNvMs6_NtNtNtCs5Xp1JEPGtUd_17fossil_headers_db5mocks44___mock_MockDatabaseProvider_DatabaseProvider29___get_last_stored_blocknumberNtB5_11Expectation11in_sequence
FN:97,_RNvMs6_NtNtNtCs5Xp1JEPGtUd_17fossil_headers_db5mocks44___mock_MockDatabaseProvider_DatabaseProvider29___get_last_stored_blocknumberNtB5_11Expectation3new
FN:97,_RNvMs6_NtNtNtCs5Xp1JEPGtUd_17fossil_headers_db5mocks44___mock_MockDatabaseProvider_DatabaseProvider29___get_last_stored_blocknumberNtB5_11Expectation4call
FN:97,_RNvMs6_NtNtNtCs5Xp1JEPGtUd_17fossil_headers_db5mocks44___mock_MockDatabaseProvider_DatabaseProvider29___get_last_stored_blocknumberNtB5_11Expectation4once
FN:97,_RNvMs6_NtNtNtCs5Xp1JEPGtUd_17fossil_headers_db5mocks44___mock_MockDatabaseProvider_DatabaseProvider29___get_last_stored_blocknumberNtB5_11Expectation4with
FN:97,_RNvMs6_NtNtNtCs5Xp1JEPGtUd_17fossil_headers_db5mocks44___mock_MockDatabaseProvider_DatabaseProvider29___get_last_stored_blocknumberNtB5_11Expectation5never
FN:97,_RNvMs6_NtNtNtCs5Xp1JEPGtUd_17fossil_headers_db5mocks44___mock_MockDatabaseProvider_DatabaseProvider29___get_last_stored_blocknumberNtB5_11Expectation7is_done
FN:97,_RNvMs6_NtNtNtCs5Xp1JEPGtUd_17fossil_headers_db5mocks44___mock_MockDatabaseProvider_DatabaseProvider29___get_last_stored_blocknumberNtB5_11Expectation7matches
FN:61,_RNvMs6_NtNtNtCs5Xp1JEPGtUd_17fossil_headers_db5mocks50___mock_MockEthereumRpcProvider_EthereumRpcProvider26___get_full_block_by_numberNtB5_11Expectation11in_sequence
FN:61,_RNvMs6_NtNtNtCs5Xp1JEPGtUd_17fossil_headers_db5mocks50___mock_MockEthereumRpcProvider_EthereumRpcProvider26___get_full_block_by_numberNtB5_11Expectation3new
FN:61,_RNvMs6_NtNtNtCs5Xp1JEPGtUd_17fossil_headers_db5mocks50___mock_MockEthereumRpcProvider_EthereumRpcProvider26___get_full_block_by_numberNtB5_11Expectation4call
FN:61,_RNvMs6_NtNtNtCs5Xp1JEPGtUd_17fossil_headers_db5mocks50___mock_MockEthereumRpcProvider_EthereumRpcProvider26___get_full_block_by_numberNtB5_11Expectation4once
FN:61,_RNvMs6_NtNtNtCs5Xp1JEPGtUd_17fossil_headers_db5mocks50___mock_MockEthereumRpcProvider_EthereumRpcProvider26___get_full_block_by_numberNtB5_11Expectation5never
FN:61,_RNvMs6_NtNtNtCs5Xp1JEPGtUd_17fossil_headers_db5mocks50___mock_MockEthereumRpcProvider_EthereumRpcProvider26___get_full_block_by_numberNtB5_11Expectation7is_done
FN:61,_RNvMs6_NtNtNtCs5Xp1JEPGtUd_17fossil_headers_db5mocks50___mock_MockEthereumRpcProvider_EthereumRpcProvider26___get_full_block_by_numberNtB5_11Expectation7matches
FN:61,_RNvMs6_NtNtNtCs5Xp1JEPGtUd_17fossil_headers_db5mocks50___mock_MockEthereumRpcProvider_EthereumRpcProvider34___get_latest_finalized_blocknumberNtB5_11Expectation11in_sequence
FN:61,_RNvMs6_NtNtNtCs5Xp1JEPGtUd_17fossil_headers_db5mocks50___mock_MockEthereumRpcProvider_EthereumRpcProvider34___get_latest_finalized_blocknumberNtB5_11Expectation3new
FN:61,_RNvMs6_NtNtNtCs5Xp1JEPGtUd_17fossil_headers_db5mocks50___mock_MockEthereumRpcProvider_EthereumRpcProvider34___get_latest_finalized_blocknumberNtB5_11Expectation4call
FN:61,_RNvMs6_NtNtNtCs5Xp1JEPGtUd_17fossil_headers_db5mocks50___mock_MockEthereumRpcProvider_EthereumRpcProvider34___get_latest_finalized_blocknumberNtB5_11Expectation4once
FN:61,_RNvMs6_NtNtNtCs5Xp1JEPGtUd_17fossil_headers_db5mocks50___mock_MockEthereumRpcProvider_EthereumRpcProvider34___get_latest_finalized_blocknumberNtB5_11Expectation5never
FN:61,_RNvMs6_NtNtNtCs5Xp1JEPGtUd_17fossil_headers_db5mocks50___mock_MockEthereumRpcProvider_EthereumRpcProvider34___get_latest_finalized_blocknumberNtB5_11Expectation7is_done
FN:61,_RNvMs6_NtNtNtCs5Xp1JEPGtUd_17fossil_headers_db5mocks50___mock_MockEthereumRpcProvider_EthereumRpcProvider34___get_latest_finalized_blocknumberNtB5_11Expectation7matches
FN:97,_RNvMs7_NtCs5Xp1JEPGtUd_17fossil_headers_db5mocksNtB5_20MockDatabaseProvider10checkpoint
FN:97,_RNvMs7_NtCs5Xp1JEPGtUd_17fossil_headers_db5mocksNtB5_20MockDatabaseProvider3new
FN:97,_RNvMs8_NtCs5Xp1JEPGtUd_17fossil_headers_db5mocksNtB5_20MockDatabaseProvider19expect_block_exists
FN:97,_RNvMs8_NtCs5Xp1JEPGtUd_17fossil_headers_db5mocksNtB5_20MockDatabaseProvider21expect_find_first_gap
FN:97,_RNvMs8_NtCs5Xp1JEPGtUd_17fossil_headers_db5mocksNtB5_20MockDatabaseProvider23expect_check_connection
FN:97,_RNvMs8_NtCs5Xp1JEPGtUd_17fossil_headers_db5mocksNtB5_20MockDatabaseProvider26expect_insert_block_header
FN:97,_RNvMs8_NtCs5Xp1JEPGtUd_17fossil_headers_db5mocksNtB5_20MockDatabaseProvider34expect_get_last_stored_blocknumber
FN:97,_RNvMs8_NtNtNtCs5Xp1JEPGtUd_17fossil_headers_db5mocks44___mock_MockDatabaseProvider_DatabaseProvider14___block_existsNtB5_12Expectations10checkpoint
FN:97,_RNvMs8_NtNtNtCs5Xp1JEPGtUd_17fossil_headers_db5mocks44___mock_MockDatabaseProvider_DatabaseProvider14___block_existsNtB5_12Expectations3new
FN:97,_RNvMs8_NtNtNtCs5Xp1JEPGtUd_17fossil_headers_db5mocks44___mock_MockDatabaseProvider_DatabaseProvider14___block_existsNtB5_12Expectations6expect
FN:97,_RNvMs8_NtNtNtCs5Xp1JEPGtUd_17fossil_headers_db5mocks44___mock_MockDatabaseProvider_DatabaseProvider16___find_first_gapNtB5_12Expectations10checkpoint
FN:97,_RNvMs8_NtNtNtCs5Xp1JEPGtUd_17fossil_headers_db5mocks44___mock_MockDatabaseProvider_DatabaseProvider16___find_first_gapNtB5_12Expectations3new
FN:97,_RNvMs8_NtNtNtCs5Xp1JEPGtUd_17fossil_headers_db5mocks44___mock_MockDatabaseProvider_DatabaseProvider16___find_first_gapNtB5_12Expectations6expect
FN:97,_RNvMs8_NtNtNtCs5Xp1JEPGtUd_17fossil_headers_db5mocks44___mock_MockDatabaseProvider_DatabaseProvider18___check_connectionNtB5_12Expectations10checkpoint
FN:97,_RNvMs8_NtNtNtCs5Xp1JEPGtUd_17fossil_headers_db5mocks44___mock_MockDatabaseProvider_DatabaseProvider18___check_connectionNtB5_12Expectations3new
FN:97,_RNvMs8_NtNtNtCs5Xp1JEPGtUd_17fossil_headers_db5mocks44___mock_MockDatabaseProvider_DatabaseProvider18___check_connectionNtB5_12Expectations6expect
FN:97,_RNvMs8_NtNtNtCs5Xp1JEPGtUd_17fossil_headers_db5mocks44___mock_MockDatabaseProvider_DatabaseProvider21___insert_block_headerNtB5_12Expectations10checkpoint
FN:97,_RNvMs8_NtNtNtCs5Xp1JEPGtUd_17fossil_headers_db5mocks44___mock_MockDatabaseProvider_DatabaseProvider21___insert_block_headerNtB5_12Expectations3new
FN:97,_RNvMs8_NtNtNtCs5Xp1JEPGtUd_17fossil_headers_db5mocks44___mock_MockDatabaseProvider_DatabaseProvider21___insert_block_headerNtB5_12Expectations6expect
FN:97,_RNvMs8_NtNtNtCs5Xp1JEPGtUd_17fossil_headers_db5mocks44___mock_MockDatabaseProvider_DatabaseProvider29___get_last_stored_blocknumberNtB5_12Expectations10checkpoint
FN:97,_RNvMs8_NtNtNtCs5Xp1JEPGtUd_17fossil_headers_db5mocks44___mock_MockDatabaseProvider_DatabaseProvider29___get_last_stored_blocknumberNtB5_12Expectations3new
FN:97,_RNvMs8_NtNtNtCs5Xp1JEPGtUd_17fossil_headers_db5mocks44___mock_MockDatabaseProvider_DatabaseProvider29___get_last_stored_blocknumberNtB5_12Expectations6expect
FN:61,_RNvMs8_NtNtNtCs5Xp1JEPGtUd_17fossil_headers_db5mocks50___mock_MockEthereumRpcProvider_EthereumRpcProvider26___get_full_block_by_numberNtB5_12Expectations10checkpoint
FN:61,_RNvMs8_NtNtNtCs5Xp1JEPGtUd_17fossil_headers_db5mocks50___mock_MockEthereumRpcProvider_EthereumRpcProvider26___get_full_block_by_numberNtB5_12Expectations3new
FN:61,_RNvMs8_NtNtNtCs5Xp1JEPGtUd_17fossil_headers_db5mocks50___mock_MockEthereumRpcProvider_EthereumRpcProvider26___get_full_block_by_numberNtB5_12Expectations6expect
FN:61,_RNvMs8_NtNtNtCs5Xp1JEPGtUd_17fossil_headers_db5mocks50___mock_MockEthereumRpcProvider_EthereumRpcProvider34___get_latest_finalized_blocknumberNtB5_12Expectations10checkpoint
FN:61,_RNvMs8_NtNtNtCs5Xp1JEPGtUd_17fossil_headers_db5mocks50___mock_MockEthereumRpcProvider_EthereumRpcProvider34___get_latest_finalized_blocknumberNtB5_12Expectations3new
FN:61,_RNvMs8_NtNtNtCs5Xp1JEPGtUd_17fossil_headers_db5mocks50___mock_MockEthereumRpcProvider_EthereumRpcProvider34___get_latest_finalized_blocknumberNtB5_12Expectations6expect
FN:97,_RNvMsa_NtNtNtCs5Xp1JEPGtUd_17fossil_headers_db5mocks44___mock_MockDatabaseProvider_DatabaseProvider14___block_existsNtB5_12Expectations4call
FN:97,_RNvMsa_NtNtNtCs5Xp1JEPGtUd_17fossil_headers_db5mocks44___mock_MockDatabaseProvider_DatabaseProvider16___find_first_gapNtB5_12Expectations4call
FN:97,_RNvMsa_NtNtNtCs5Xp1JEPGtUd_17fossil_headers_db5mocks44___mock_MockDatabaseProvider_DatabaseProvider18___check_connectionNtB5_12Expectations4call
FN:97,_RNvMsa_NtNtNtCs5Xp1JEPGtUd_17fossil_headers_db5mocks44___mock_MockDatabaseProvider_DatabaseProvider21___insert_block_headerNtB5_12Expectations4call
FN:97,_RNvMsa_NtNtNtCs5Xp1JEPGtUd_17fossil_headers_db5mocks44___mock_MockDatabaseProvider_DatabaseProvider29___get_last_stored_blocknumberNtB5_12Expectations4call
FN:61,_RNvMsa_NtNtNtCs5Xp1JEPGtUd_17fossil_headers_db5mocks50___mock_MockEthereumRpcProvider_EthereumRpcProvider26___get_full_block_by_numberNtB5_12Expectations4call
FN:61,_RNvMsa_NtNtNtCs5Xp1JEPGtUd_17fossil_headers_db5mocks50___mock_MockEthereumRpcProvider_EthereumRpcProvider34___get_latest_finalized_blocknumberNtB5_12Expectations4call
FN:61,_RNvXNtCs5Xp1JEPGtUd_17fossil_headers_db5mocksNtB2_23MockEthereumRpcProviderNtNtCs66KPHxksi63_4core7default7Default7default
FN:97,_RNvXs1_NtNtNtCs5Xp1JEPGtUd_17fossil_headers_db5mocks44___mock_MockDatabaseProvider_DatabaseProvider14___block_existsNtB5_7MatcherNtNtCs66KPHxksi63_4core7default7Default7default
FN:97,_RNvXs1_NtNtNtCs5Xp1JEPGtUd_17fossil_headers_db5mocks44___mock_MockDatabaseProvider_DatabaseProvider16___find_first_gapNtB5_7MatcherNtNtCs66KPHxksi63_4core7default7Default7default
FN:97,_RNvXs1_NtNtNtCs5Xp1JEPGtUd_17fossil_headers_db5mocks44___mock_MockDatabaseProvider_DatabaseProvider18___check_connectionNtB5_7MatcherNtNtCs66KPHxksi63_4core7default7Default7default
FN:97,_RNvXs1_NtNtNtCs5Xp1JEPGtUd_17fossil_headers_db5mocks44___mock_MockDatabaseProvider_DatabaseProvider21___insert_block_headerNtB5_7MatcherNtNtCs66KPHxksi63_4core7default7Default7default
FN:97,_RNvXs1_NtNtNtCs5Xp1JEPGtUd_17fossil_headers_db5mocks44___mock_MockDatabaseProvider_DatabaseProvider29___get_last_stored_blocknumberNtB5_7MatcherNtNtCs66KPHxksi63_4core7default7Default7default
FN:61,_RNvXs1_NtNtNtCs5Xp1JEPGtUd_17fossil_headers_db5mocks50___mock_MockEthereumRpcProvider_EthereumRpcProvider26___get_full_block_by_numberNtB5_7MatcherNtNtCs66KPHxksi63_4core7default7Default7default
FN:61,_RNvXs1_NtNtNtCs5Xp1JEPGtUd_17fossil_headers_db5mocks50___mock_MockEthereumRpcProvider_EthereumRpcProvider34___get_latest_finalized_blocknumberNtB5_7MatcherNtNtCs66KPHxksi63_4core7default7Default7default
FN:97,_RNvXs2_NtNtNtCs5Xp1JEPGtUd_17fossil_headers_db5mocks44___mock_MockDatabaseProvider_DatabaseProvider14___block_existsNtB5_7MatcherNtNtCs66KPHxksi63_4core3fmt7Display3fmt
FN:97,_RNvXs2_NtNtNtCs5Xp1JEPGtUd_17fossil_headers_db5mocks44___mock_MockDatabaseProvider_DatabaseProvider16___find_first_gapNtB5_7MatcherNtNtCs66KPHxksi63_4core3fmt7Display3fmt
FN:97,_RNvXs2_NtNtNtCs5Xp1JEPGtUd_17fossil_headers_db5mocks44___mock_MockDatabaseProvider_DatabaseProvider18___check_connectionNtB5_7MatcherNtNtCs66KPHxksi63_4core3fmt7Display3fmt
FN:97,_RNvXs2_NtNtNtCs5Xp1JEPGtUd_17fossil_headers_db5mocks44___mock_MockDatabaseProvider_DatabaseProvider21___insert_block_headerNtB5_7MatcherNtNtCs66KPHxksi63_4core3fmt7Display3fmt
FN:97,_RNvXs2_NtNtNtCs5Xp1JEPGtUd_17fossil_headers_db5mocks44___mock_MockDatabaseProvider_DatabaseProvider29___get_last_stored_blocknumberNtB5_7MatcherNtNtCs66KPHxksi63_4core3fmt7Display3fmt
FN:61,_RNvXs2_NtNtNtCs5Xp1JEPGtUd_17fossil_headers_db5mocks50___mock_MockEthereumRpcProvider_EthereumRpcProvider26___get_full_block_by_numberNtB5_7MatcherNtNtCs66KPHxksi63_4core3fmt7Display3fmt
FN:61,_RNvXs2_NtNtNtCs5Xp1JEPGtUd_17fossil_headers_db5mocks50___mock_MockEthereumRpcProvider_EthereumRpcProvider34___get_latest_finalized_blocknumberNtB5_7MatcherNtNtCs66KPHxksi63_4core3fmt7Display3fmt
FN:97,_RNvXs3_NtNtNtCs5Xp1JEPGtUd_17fossil_headers_db5mocks44___mock_MockDatabaseProvider_DatabaseProvider14___block_existsNtB5_6CommonNtNtCs66KPHxksi63_4core7default7Default7default
FN:97,_RNvXs3_NtNtNtCs5Xp1JEPGtUd_17fossil_headers_db5mocks44___mock_MockDatabaseProvider_DatabaseProvider16___find_first_gapNtB5_6CommonNtNtCs66KPHxksi63_4core7default7Default7default
FN:97,_RNvXs3_NtNtNtCs5Xp1JEPGtUd_17fossil_headers_db5mocks44___mock_MockDatabaseProvider_DatabaseProvider18___check_connectionNtB5_6CommonNtNtCs66KPHxksi63_4core7default7Default7default
FN:97,_RNvXs3_NtNtNtCs5Xp1JEPGtUd_17fossil_headers_db5mocks44___mock_MockDatabaseProvider_DatabaseProvider21___insert_block_headerNtB5_6CommonNtNtCs66KPHxksi63_4core7default7Default7default
FN:97,_RNvXs3_NtNtNtCs5Xp1JEPGtUd_17fossil_headers_db5mocks44___mock_MockDatabaseProvider_DatabaseProvider29___get_last_stored_blocknumberNtB5_6CommonNtNtCs66KPHxksi63_4core7default7Default7default
FN:61,_RNvXs3_NtNtNtCs5Xp1JEPGtUd_17fossil_headers_db5mocks50___mock_MockEthereumRpcProvider_EthereumRpcProvider26___get_full_block_by_numberNtB5_6CommonNtNtCs66KPHxksi63_4core7default7Default7default
FN:61,_RNvXs3_NtNtNtCs5Xp1JEPGtUd_17fossil_headers_db5mocks50___mock_MockEthereumRpcProvider_EthereumRpcProvider34___get_latest_finalized_blocknumberNtB5_6CommonNtNtCs66KPHxksi63_4core7default7Default7default
FN:97,_RNvXs4_NtCs5Xp1JEPGtUd_17fossil_headers_db5mocksNtB5_20MockDatabaseProviderNtNtCs66KPHxksi63_4core7default7Default7default
FN:97,_RNvXs5_NtCs5Xp1JEPGtUd_17fossil_headers_db5mocksNtB5_37MockDatabaseProvider_DatabaseProviderNtNtCs66KPHxksi63_4core7default7Default7default
FN:97,_RNvXs5_NtNtNtCs5Xp1JEPGtUd_17fossil_headers_db5mocks44___mock_MockDatabaseProvider_DatabaseProvider14___block_existsNtB5_6CommonNtNtNtCs66KPHxksi63_4core3ops4drop4Drop4drop
FN:97,_RNvXs5_NtNtNtCs5Xp1JEPGtUd_17fossil_headers_db5mocks44___mock_MockDatabaseProvider_DatabaseProvider16___find_first_gapNtB5_6CommonNtNtNtCs66KPHxksi63_4core3ops4drop4Drop4drop
FN:97,_RNvXs5_NtNtNtCs5Xp1JEPGtUd_17fossil_headers_db5mocks44___mock_MockDatabaseProvider_DatabaseProvider18___check_connectionNtB5_6CommonNtNtNtCs66KPHxksi63_4core3ops4drop4Drop4drop
FN:97,_RNvXs5_NtNtNtCs5Xp1JEPGtUd_17fossil_headers_db5mocks44___mock_MockDatabaseProvider_DatabaseProvider21___insert_block_headerNtB5_6CommonNtNtNtCs66KPHxksi63_4core3ops4drop4Drop4drop
FN:97,_RNvXs5_NtNtNtCs5Xp1JEPGtUd_17fossil_headers_db5mocks44___mock_MockDatabaseProvider_DatabaseProvider29___get_last_stored_blocknumberNtB5_6CommonNtNtNtCs66KPHxksi63_4core3ops4drop4Drop4drop
FN:61,_RNvXs5_NtNtNtCs5Xp1JEPGtUd_17fossil_headers_db5mocks50___mock_MockEthereumRpcProvider_EthereumRpcProvider26___get_full_block_by_numberNtB5_6CommonNtNtNtCs66KPHxksi63_4core3ops4drop4Drop4drop
FN:61,_RNvXs5_NtNtNtCs5Xp1JEPGtUd_17fossil_headers_db5mocks50___mock_MockEthereumRpcProvider_EthereumRpcProvider34___get_latest_finalized_blocknumberNtB5_6CommonNtNtNtCs66KPHxksi63_4core3ops4drop4Drop4drop
FN:97,_RNvXs7_NtNtNtCs5Xp1JEPGtUd_17fossil_headers_db5mocks44___mock_MockDatabaseProvider_DatabaseProvider14___block_existsNtB5_11ExpectationNtNtCs66KPHxksi63_4core7default7Default7default
FN:97,_RNvXs7_NtNtNtCs5Xp1JEPGtUd_17fossil_headers_db5mocks44___mock_MockDatabaseProvider_DatabaseProvider16___find_first_gapNtB5_11ExpectationNtNtCs66KPHxksi63_4core7default7Default7default
FN:97,_RNvXs7_NtNtNtCs5Xp1JEPGtUd_17fossil_headers_db5mocks44___mock_MockDatabaseProvider_DatabaseProvider18___check_connectionNtB5_11ExpectationNtNtCs66KPHxksi63_4core7default7Default7default
FN:97,_RNvXs7_NtNtNtCs5Xp1JEPGtUd_17fossil_headers_db5mocks44___mock_MockDatabaseProvider_DatabaseProvider21___insert_block_headerNtB5_11ExpectationNtNtCs66KPHxksi63_4core7default7Default7default
FN:97,_RNvXs7_NtNtNtCs5Xp1JEPGtUd_17fossil_headers_db5mocks44___mock_MockDatabaseProvider_DatabaseProvider29___get_last_stored_blocknumberNtB5_11ExpectationNtNtCs66KPHxksi63_4core7default7Default7default
FN:61,_RNvXs7_NtNtNtCs5Xp1JEPGtUd_17fossil_headers_db5mocks50___mock_MockEthereumRpcProvider_EthereumRpcProvider26___get_full_block_by_numberNtB5_11ExpectationNtNtCs66KPHxksi63_4core7default7Default7default
FN:61,_RNvXs7_NtNtNtCs5Xp1JEPGtUd_17fossil_headers_db5mocks50___mock_MockEthereumRpcProvider_EthereumRpcProvider34___get_latest_finalized_blocknumberNtB5_11ExpectationNtNtCs66KPHxksi63_4core7default7Default7default
FN:97,_RNvXs9_NtCs5Xp1JEPGtUd_17fossil_headers_db5mocksNtB5_20MockDatabaseProviderNtB5_16DatabaseProvider12block_exists
FN:97,_RNvXs9_NtCs5Xp1JEPGtUd_17fossil_headers_db5mocksNtB5_20MockDatabaseProviderNtB5_16DatabaseProvider14find_first_gap
FN:97,_RNvXs9_NtCs5Xp1JEPGtUd_17fossil_headers_db5mocksNtB5_20MockDatabaseProviderNtB5_16DatabaseProvider16check_connection
FN:97,_RNvXs9_NtCs5Xp1JEPGtUd_17fossil_headers_db5mocksNtB5_20MockDatabaseProviderNtB5_16DatabaseProvider19insert_block_header
FN:97,_RNvXs9_NtCs5Xp1JEPGtUd_17fossil_headers_db5mocksNtB5_20MockDatabaseProviderNtB5_16DatabaseProvider27get_last_stored_blocknumber
FN:97,_RNvXs9_NtNtNtCs5Xp1JEPGtUd_17fossil_headers_db5mocks44___mock_MockDatabaseProvider_DatabaseProvider14___block_existsNtB5_12ExpectationsNtNtCs66KPHxksi63_4core7default7Default7default
FN:97,_RNvXs9_NtNtNtCs5Xp1JEPGtUd_17fossil_headers_db5mocks44___mock_MockDatabaseProvider_DatabaseProvider16___find_first_gapNtB5_12ExpectationsNtNtCs66KPHxksi63_4core7default7Default7default
FN:97,_RNvXs9_NtNtNtCs5Xp1JEPGtUd_17fossil_headers_db5mocks44___mock_MockDatabaseProvider_DatabaseProvider18___check_connectionNtB5_12ExpectationsNtNtCs66KPHxksi63_4core7default7Default7default
FN:97,_RNvXs9_NtNtNtCs5Xp1JEPGtUd_17fossil_headers_db5mocks44___mock_MockDatabaseProvider_DatabaseProvider21___insert_block_headerNtB5_12ExpectationsNtNtCs66KPHxksi63_4core7default7Default7default
FN:97,_RNvXs9_NtNtNtCs5Xp1JEPGtUd_17fossil_headers_db5mocks44___mock_MockDatabaseProvider_DatabaseProvider29___get_last_stored_blocknumberNtB5_12ExpectationsNtNtCs66KPHxksi63_4core7default7Default7default
FN:61,_RNvXs9_NtNtNtCs5Xp1JEPGtUd_17fossil_headers_db5mocks50___mock_MockEthereumRpcProvider_EthereumRpcProvider26___get_full_block_by_numberNtB5_12ExpectationsNtNtCs66KPHxksi63_4core7default7Default7default
FN:61,_RNvXs9_NtNtNtCs5Xp1JEPGtUd_17fossil_headers_db5mocks50___mock_MockEthereumRpcProvider_EthereumRpcProvider34___get_latest_finalized_blocknumberNtB5_12ExpectationsNtNtCs66KPHxksi63_4core7default7Default7default
FN:61,_RNvXs_NtCs5Xp1JEPGtUd_17fossil_headers_db5mocksNtB4_43MockEthereumRpcProvider_EthereumRpcProviderNtNtCs66KPHxksi63_4core7default7Default7default
FN:97,_RNvXs_NtNtNtCs5Xp1JEPGtUd_17fossil_headers_db5mocks44___mock_MockDatabaseProvider_DatabaseProvider14___block_existsNtB4_5RfuncNtNtCs66KPHxksi63_4core7default7Default7default
FN:97,_RNvXs_NtNtNtCs5Xp1JEPGtUd_17fossil_headers_db5mocks44___mock_MockDatabaseProvider_DatabaseProvider16___find_first_gapNtB4_5RfuncNtNtCs66KPHxksi63_4core7default7Default7default
FN:97,_RNvXs_NtNtNtCs5Xp1JEPGtUd_17fossil_headers_db5mocks44___mock_MockDatabaseProvider_DatabaseProvider18___check_connectionNtB4_5RfuncNtNtCs66KPHxksi63_4core7default7Default7default
FN:97,_RNvXs_NtNtNtCs5Xp1JEPGtUd_17fossil_headers_db5mocks44___mock_MockDatabaseProvider_DatabaseProvider21___insert_block_headerNtB4_5RfuncNtNtCs66KPHxksi63_4core7default7Default7default
FN:97,_RNvXs_NtNtNtCs5Xp1JEPGtUd_17fossil_headers_db5mocks44___mock_MockDatabaseProvider_DatabaseProvider29___get_last_stored_blocknumberNtB4_5RfuncNtNtCs66KPHxksi63_4core7default7Default7default
FN:61,_RNvXs_NtNtNtCs5Xp1JEPGtUd_17fossil_headers_db5mocks50___mock_MockEthereumRpcProvider_EthereumRpcProvider26___get_full_block_by_numberNtB4_5RfuncNtNtCs66KPHxksi63_4core7default7Default7default
FN:61,_RNvXs_NtNtNtCs5Xp1JEPGtUd_17fossil_headers_db5mocks50___mock_MockEthereumRpcProvider_EthereumRpcProvider34___get_latest_finalized_blocknumberNtB4_5RfuncNtNtCs66KPHxksi63_4core7default7Default7default
FNDA:0,_RINvMs4_NtNtNtCs5Xp1JEPGtUd_17fossil_headers_db5mocks44___mock_MockDatabaseProvider_DatabaseProvider14___block_existsNtB6_6Common4withpEBc_
FNDA:0,_RINvMs4_NtNtNtCs5Xp1JEPGtUd_17fossil_headers_db5mocks44___mock_MockDatabaseProvider_DatabaseProvider14___block_existsNtB6_6Common5timespEBc_
FNDA:0,_RINvMs4_NtNtNtCs5Xp1JEPGtUd_17fossil_headers_db5mocks44___mock_MockDatabaseProvider_DatabaseProvider14___block_existsNtB6_6Common5withfpEBc_
FNDA:0,_RINvMs4_NtNtNtCs5Xp1JEPGtUd_17fossil_headers_db5mocks44___mock_MockDatabaseProvider_DatabaseProvider14___block_existsNtB6_6Common8withf_stpEBc_
FNDA:0,_RINvMs4_NtNtNtCs5Xp1JEPGtUd_17fossil_headers_db5mocks44___mock_MockDatabaseProvider_DatabaseProvider16___find_first_gapNtB6_6Common4withppEBc_
FNDA:0,_RINvMs4_NtNtNtCs5Xp1JEPGtUd_17fossil_headers_db5mocks44___mock_MockDatabaseProvider_DatabaseProvider16___find_first_gapNtB6_6Common5timespEBc_
FNDA:0,_RINvMs4_NtNtNtCs5Xp1JEPGtUd_17fossil_headers_db5mocks44___mock_MockDatabaseProvider_DatabaseProvider16___find_first_gapNtB6_6Common5withfpEBc_
FNDA:0,_RINvMs4_NtNtNtCs5Xp1JEPGtUd_17fossil_headers_db5mocks44___mock_MockDatabaseProvider_DatabaseProvider16___find_first_gapNtB6_6Common8withf_stpEBc_
FNDA:0,_RINvMs4_NtNtNtCs5Xp1JEPGtUd_17fossil_headers_db5mocks44___mock_MockDatabaseProvider_DatabaseProvider18___check_connectionNtB6_6Common5timespEBc_
FNDA:0,_RINvMs4_NtNtNtCs5Xp1JEPGtUd_17fossil_headers_db5mocks44___mock_MockDatabaseProvider_DatabaseProvider18___check_connectionNtB6_6Common5withfpEBc_
FNDA:0,_RINvMs4_NtNtNtCs5Xp1JEPGtUd_17fossil_headers_db5mocks44___mock_MockDatabaseProvider_DatabaseProvider18___check_connectionNtB6_6Common8withf_stpEBc_
FNDA:0,_RINvMs4_NtNtNtCs5Xp1JEPGtUd_17fossil_headers_db5mocks44___mock_MockDatabaseProvider_DatabaseProvider21___insert_block_headerNtB6_6Common4withppEBc_
FNDA:0,_RINvMs4_NtNtNtCs5Xp1JEPGtUd_17fossil_headers_db5mocks44___mock_MockDatabaseProvider_DatabaseProvider21___insert_block_headerNtB6_6Common5timespEBc_
FNDA:0,_RINvMs4_NtNtNtCs5Xp1JEPGtUd_17fossil_headers_db5mocks44___mock_MockDatabaseProvider_DatabaseProvider21___insert_block_headerNtB6_6Common5withfpEBc_
FNDA:0,_RINvMs4_NtNtNtCs5Xp1JEPGtUd_17fossil_headers_db5mocks44___mock_MockDatabaseProvider_DatabaseProvider21___insert_block_headerNtB6_6Common8withf_stpEBc_
FNDA:0,_RINvMs4_NtNtNtCs5Xp1JEPGtUd_17fossil_headers_db5mocks44___mock_MockDatabaseProvider_DatabaseProvider29___get_last_stored_blocknumberNtB6_6Common5timespEBc_
FNDA:0,_RINvMs4_NtNtNtCs5Xp1JEPGtUd_17fossil_headers_db5mocks44___mock_MockDatabaseProvider_DatabaseProvider29___get_last_stored_blocknumberNtB6_6Common5withfpEBc_
FNDA:0,_RINvMs4_NtNtNtCs5Xp1JEPGtUd_17fossil_headers_db5mocks44___mock_MockDatabaseProvider_DatabaseProvider29___get_last_stored_blocknumberNtB6_6Common8withf_stpEBc_
FNDA:0,_RINvMs4_NtNtNtCs5Xp1JEPGtUd_17fossil_headers_db5mocks50___mock_MockEthereumRpcProvider_EthereumRpcProvider26___get_full_block_by_numberNtB6_6Common4withpppEBc_
FNDA:0,_RINvMs4_NtNtNtCs5Xp1JEPGtUd_17fossil_headers_db5mocks50___mock_MockEthereumRpcProvider_EthereumRpcProvider26___get_full_block_by_numberNtB6_6Common5timespEBc_
FNDA:0,_RINvMs4_NtNtNtCs5Xp1JEPGtUd_17fossil_headers_db5mocks50___mock_MockEthereumRpcProvider_EthereumRpcProvider26___get_full_block_by_numberNtB6_6Common5withfpEBc_
FNDA:0,_RINvMs4_NtNtNtCs5Xp1JEPGtUd_17fossil_headers_db5mocks50___mock_MockEthereumRpcProvider_EthereumRpcProvider26___get_full_block_by_numberNtB6_6Common8withf_stpEBc_
FNDA:0,_RINvMs4_NtNtNtCs5Xp1JEPGtUd_17fossil_headers_db5mocks50___mock_MockEthereumRpcProvider_EthereumRpcProvider34___get_latest_finalized_blocknumberNtB6_6Common4withpEBc_
FNDA:0,_RINvMs4_NtNtNtCs5Xp1JEPGtUd_17fossil_headers_db5mocks50___mock_MockEthereumRpcProvider_EthereumRpcProvider34___get_latest_finalized_blocknumberNtB6_6Common5timespEBc_
FNDA:0,_RINvMs4_NtNtNtCs5Xp1JEPGtUd_17fossil_headers_db5mocks50___mock_MockEthereumRpcProvider_EthereumRpcProvider34___get_latest_finalized_blocknumberNtB6_6Common5withfpEBc_
FNDA:0,_RINvMs4_NtNtNtCs5Xp1JEPGtUd_17fossil_headers_db5mocks50___mock_MockEthereumRpcProvider_EthereumRpcProvider34___get_latest_finalized_blocknumberNtB6_6Common8withf_stpEBc_
FNDA:0,_RINvMs6_NtNtNtCs5Xp1JEPGtUd_17fossil_headers_db5mocks44___mock_MockDatabaseProvider_DatabaseProvider14___block_existsNtB6_11Expectation11return_oncepEBc_
FNDA:0,_RINvMs6_NtNtNtCs5Xp1JEPGtUd_17fossil_headers_db5mocks44___mock_MockDatabaseProvider_DatabaseProvider14___block_existsNtB6_11Expectation12return_constpEBc_
FNDA:0,_RINvMs6_NtNtNtCs5Xp1JEPGtUd_17fossil_headers_db5mocks44___mock_MockDatabaseProvider_DatabaseProvider14___block_existsNtB6_11Expectation12returning_stpEBc_
FNDA:0,_RINvMs6_NtNtNtCs5Xp1JEPGtUd_17fossil_headers_db5mocks44___mock_MockDatabaseProvider_DatabaseProvider14___block_existsNtB6_11Expectation14return_once_stpEBc_
FNDA:0,_RINvMs6_NtNtNtCs5Xp1JEPGtUd_17fossil_headers_db5mocks44___mock_MockDatabaseProvider_DatabaseProvider14___block_existsNtB6_11Expectation15return_const_stpEBc_
FNDA:0,_RINvMs6_NtNtNtCs5Xp1JEPGtUd_17fossil_headers_db5mocks44___mock_MockDatabaseProvider_DatabaseProvider14___block_existsNtB6_11Expectation4withpEBc_
FNDA:0,_RINvMs6_NtNtNtCs5Xp1JEPGtUd_17fossil_headers_db5mocks44___mock_MockDatabaseProvider_DatabaseProvider14___block_existsNtB6_11Expectation5timespEBc_
FNDA:0,_RINvMs6_NtNtNtCs5Xp1JEPGtUd_17fossil_headers_db5mocks44___mock_MockDatabaseProvider_DatabaseProvider14___block_existsNtB6_11Expectation5withfpEBc_
FNDA:0,_RINvMs6_NtNtNtCs5Xp1JEPGtUd_17fossil_headers_db5mocks44___mock_MockDatabaseProvider_DatabaseProvider14___block_existsNtB6_11Expectation8withf_stpEBc_
FNDA:0,_RINvMs6_NtNtNtCs5Xp1JEPGtUd_17fossil_headers_db5mocks44___mock_MockDatabaseProvider_DatabaseProvider14___block_existsNtB6_11Expectation9returningpEBc_
FNDA:0,_RINvMs6_NtNtNtCs5Xp1JEPGtUd_17fossil_headers_db5mocks44___mock_MockDatabaseProvider_DatabaseProvider16___find_first_gapNtB6_11Expectation11return_oncepEBc_
FNDA:0,_RINvMs6_NtNtNtCs5Xp1JEPGtUd_17fossil_headers_db5mocks44___mock_MockDatabaseProvider_DatabaseProvider16___find_first_gapNtB6_11Expectation12return_constpEBc_
FNDA:0,_RINvMs6_NtNtNtCs5Xp1JEPGtUd_17fossil_headers_db5mocks44___mock_MockDatabaseProvider_DatabaseProvider16___find_first_gapNtB6_11Expectation12returning_stpEBc_
FNDA:0,_RINvMs6_NtNtNtCs5Xp1JEPGtUd_17fossil_headers_db5mocks44___mock_MockDatabaseProvider_DatabaseProvider16___find_first_gapNtB6_11Expectation14return_once_stpEBc_
FNDA:0,_RINvMs6_NtNtNtCs5Xp1JEPGtUd_17fossil_headers_db5mocks44___mock_MockDatabaseProvider_DatabaseProvider16___find_first_gapNtB6_11Expectation15return_const_stpEBc_
FNDA:0,_RINvMs6_NtNtNtCs5Xp1JEPGtUd_17fossil_headers_db5mocks44___mock_MockDatabaseProvider_DatabaseProvider16___find_first_gapNtB6_11Expectation4withppEBc_
FNDA:0,_RINvMs6_NtNtNtCs5Xp1JEPGtUd_17fossil_headers_db5mocks44___mock_MockDatabaseProvider_DatabaseProvider16___find_first_gapNtB6_11Expectation5timespEBc_
FNDA:0,_RINvMs6_NtNtNtCs5Xp1JEPGtUd_17fossil_headers_db5mocks44___mock_MockDatabaseProvider_DatabaseProvider16___find_first_gapNtB6_11Expectation5withfpEBc_
FNDA:0,_RINvMs6_NtNtNtCs5Xp1JEPGtUd_17fossil_headers_db5mocks44___mock_MockDatabaseProvider_DatabaseProvider16___find_first_gapNtB6_11Expectation8withf_stpEBc_
FNDA:0,_RINvMs6_NtNtNtCs5Xp1JEPGtUd_17fossil_headers_db5mocks44___mock_MockDatabaseProvider_DatabaseProvider16___find_first_gapNtB6_11Expectation9returningpEBc_
FNDA:0,_RINvMs6_NtNtNtCs5Xp1JEPGtUd_17fossil_headers_db5mocks44___mock_MockDatabaseProvider_DatabaseProvider18___check_connectionNtB6_11Expectation11return_oncepEBc_
FNDA:0,_RINvMs6_NtNtNtCs5Xp1JEPGtUd_17fossil_headers_db5mocks44___mock_MockDatabaseProvider_DatabaseProvider18___check_connectionNtB6_11Expectation12return_constpEBc_
FNDA:0,_RINvMs6_NtNtNtCs5Xp1JEPGtUd_17fossil_headers_db5mocks44___mock_MockDatabaseProvider_DatabaseProvider18___check_connectionNtB6_11Expectation12returning_stpEBc_
FNDA:0,_RINvMs6_NtNtNtCs5Xp1JEPGtUd_17fossil_headers_db5mocks44___mock_MockDatabaseProvider_DatabaseProvider18___check_connectionNtB6_11Expectation14return_once_stpEBc_
FNDA:0,_RINvMs6_NtNtNtCs5Xp1JEPGtUd_17fossil_headers_db5mocks44___mock_MockDatabaseProvider_DatabaseProvider18___check_connectionNtB6_11Expectation15return_const_stpEBc_
FNDA:0,_RINvMs6_NtNtNtCs5Xp1JEPGtUd_17fossil_headers_db5mocks44___mock_MockDatabaseProvider_DatabaseProvider18___check_connectionNtB6_11Expectation5timespEBc_
FNDA:0,_RINvMs6_NtNtNtCs5Xp1JEPGtUd_17fossil_headers_db5mocks44___mock_MockDatabaseProvider_DatabaseProvider18___check_connectionNtB6_11Expectation5withfpEBc_
FNDA:0,_RINvMs6_NtNtNtCs5Xp1JEPGtUd_17fossil_headers_db5mocks44___mock_MockDatabaseProvider_DatabaseProvider18___check_connectionNtB6_11Expectation8withf_stpEBc_
FNDA:0,_RINvMs6_NtNtNtCs5Xp1JEPGtUd_17fossil_headers_db5mocks44___mock_MockDatabaseProvider_DatabaseProvider18___check_connectionNtB6_11Expectation9returningpEBc_
FNDA:0,_RINvMs6_NtNtNtCs5Xp1JEPGtUd_17fossil_headers_db5mocks44___mock_MockDatabaseProvider_DatabaseProvider21___insert_block_headerNtB6_11Expectation11return_oncepEBc_
FNDA:0,_RINvMs6_NtNtNtCs5Xp1JEPGtUd_17fossil_headers_db5mocks44___mock_MockDatabaseProvider_DatabaseProvider21___insert_block_headerNtB6_11Expectation12return_constpEBc_
FNDA:0,_RINvMs6_NtNtNtCs5Xp1JEPGtUd_17fossil_headers_db5mocks44___mock_MockDatabaseProvider_DatabaseProvider21___insert_block_headerNtB6_11Expectation12returning_stpEBc_
FNDA:0,_RINvMs6_NtNtNtCs5Xp1JEPGtUd_17fossil_headers_db5mocks44___mock_MockDatabaseProvider_DatabaseProvider21___insert_block_headerNtB6_11Expectation14return_once_stpEBc_
FNDA:0,_RINvMs6_NtNtNtCs5Xp1JEPGtUd_17fossil_headers_db5mocks44___mock_MockDatabaseProvider_DatabaseProvider21___insert_block_headerNtB6_11Expectation15return_const_stpEBc_
FNDA:0,_RINvMs6_NtNtNtCs5Xp1JEPGtUd_17fossil_headers_db5mocks44___mock_MockDatabaseProvider_DatabaseProvider21___insert_block_headerNtB6_11Expectation4withppEBc_
FNDA:0,_RINvMs6_NtNtNtCs5Xp1JEPGtUd_17fossil_headers_db5mocks44___mock_MockDatabaseProvider_DatabaseProvider21___insert_block_headerNtB6_11Expectation5timespEBc_
FNDA:0,_RINvMs6_NtNtNtCs5Xp1JEPGtUd_17fossil_headers_db5mocks44___mock_MockDatabaseProvider_DatabaseProvider21___insert_block_headerNtB6_11Expectation5withfpEBc_
FNDA:0,_RINvMs6_NtNtNtCs5Xp1JEPGtUd_17fossil_headers_db5mocks44___mock_MockDatabaseProvider_DatabaseProvider21___insert_block_headerNtB6_11Expectation8withf_stpEBc_
FNDA:0,_RINvMs6_NtNtNtCs5Xp1JEPGtUd_17fossil_headers_db5mocks44___mock_MockDatabaseProvider_DatabaseProvider21___insert_block_headerNtB6_11Expectation9returningpEBc_
FNDA:0,_RINvMs6_NtNtNtCs5Xp1JEPGtUd_17fossil_headers_db5mocks44___mock_MockDatabaseProvider_DatabaseProvider29___get_last_stored_blocknumberNtB6_11Expectation11return_oncepEBc_
FNDA:0,_RINvMs6_NtNtNtCs5Xp1JEPGtUd_17fossil_headers_db5mocks44___mock_MockDatabaseProvider_DatabaseProvider29___get_last_stored_blocknumberNtB6_11Expectation12return_constpEBc_
FNDA:0,_RINvMs6_NtNtNtCs5Xp1JEPGtUd_17fossil_headers_db5mocks44___mock_MockDatabaseProvider_DatabaseProvider29___get_last_stored_blocknumberNtB6_11Expectation12returning_stpEBc_
FNDA:0,_RINvMs6_NtNtNtCs5Xp1JEPGtUd_17fossil_headers_db5mocks44___mock_MockDatabaseProvider_DatabaseProvider29___get_last_stored_blocknumberNtB6_11Expectation14return_once_stpEBc_
FNDA:0,_RINvMs6_NtNtNtCs5Xp1JEPGtUd_17fossil_headers_db5mocks44___mock_MockDatabaseProvider_DatabaseProvider29___get_last_stored_blocknumberNtB6_11Expectation15return_const_stpEBc_
FNDA:0,_RINvMs6_NtNtNtCs5Xp1JEPGtUd_17fossil_headers_db5mocks44___mock_MockDatabaseProvider_DatabaseProvider29___get_last_stored_blocknumberNtB6_11Expectation5timespEBc_
FNDA:0,_RINvMs6_NtNtNtCs5Xp1JEPGtUd_17fossil_headers_db5mocks44___mock_MockDatabaseProvider_DatabaseProvider29___get_last_stored_blocknumberNtB6_11Expectation5withfpEBc_
FNDA:0,_RINvMs6_NtNtNtCs5Xp1JEPGtUd_17fossil_headers_db5mocks44___mock_MockDatabaseProvider_DatabaseProvider29___get_last_stored_blocknumberNtB6_11Expectation8withf_stpEBc_
FNDA:0,_RINvMs6_NtNtNtCs5Xp1JEPGtUd_17fossil_headers_db5mocks44___mock_MockDatabaseProvider_DatabaseProvider29___get_last_stored_blocknumberNtB6_11Expectation9returningpEBc_
FNDA:0,_RINvMs6_NtNtNtCs5Xp1JEPGtUd_17fossil_headers_db5mocks50___mock_MockEthereumRpcProvider_EthereumRpcProvider26___get_full_block_by_numberNtB6_11Expectation11return_oncepEBc_
FNDA:0,_RINvMs6_NtNtNtCs5Xp1JEPGtUd_17fossil_headers_db5mocks50___mock_MockEthereumRpcProvider_EthereumRpcProvider26___get_full_block_by_numberNtB6_11Expectation12return_constpEBc_
FNDA:0,_RINvMs6_NtNtNtCs5Xp1JEPGtUd_17fossil_headers_db5mocks50___mock_MockEthereumRpcProvider_EthereumRpcProvider26___get_full_block_by_numberNtB6_11Expectation12returning_stpEBc_
FNDA:0,_RINvMs6_NtNtNtCs5Xp1JEPGtUd_17fossil_headers_db5mocks50___mock_MockEthereumRpcProvider_EthereumRpcProvider26___get_full_block_by_numberNtB6_11Expectation14return_once_stpEBc_
FNDA:0,_RINvMs6_NtNtNtCs5Xp1JEPGtUd_17fossil_headers_db5mocks50___mock_MockEthereumRpcProvider_EthereumRpcProvider26___get_full_block_by_numberNtB6_11Expectation15return_const_stpEBc_
FNDA:0,_RINvMs6_NtNtNtCs5Xp1JEPGtUd_17fossil_headers_db5mocks50___mock_MockEthereumRpcProvider_EthereumRpcProvider26___get_full_block_by_numberNtB6_11Expectation4withpppEBc_
FNDA:0,_RINvMs6_NtNtNtCs5Xp1JEPGtUd_17fossil_headers_db5mocks50___mock_MockEthereumRpcProvider_EthereumRpcProvider26___get_full_block_by_numberNtB6_11Expectation5timespEBc_
FNDA:0,_RINvMs6_NtNtNtCs5Xp1JEPGtUd_17fossil_headers_db5mocks50___mock_MockEthereumRpcProvider_EthereumRpcProvider26___get_full_block_by_numberNtB6_11Expectation5withfpEBc_
FNDA:0,_RINvMs6_NtNtNtCs5Xp1JEPGtUd_17fossil_headers_db5mocks50___mock_MockEthereumRpcProvider_EthereumRpcProvider26___get_full_block_by_numberNtB6_11Expectation8withf_stpEBc_
FNDA:0,_RINvMs6_NtNtNtCs5Xp1JEPGtUd_17fossil_headers_db5mocks50___mock_MockEthereumRpcProvider_EthereumRpcProvider26___get_full_block_by_numberNtB6_11Expectation9returningpEBc_
FNDA:0,_RINvMs6_NtNtNtCs5Xp1JEPGtUd_17fossil_headers_db5mocks50___mock_MockEthereumRpcProvider_EthereumRpcProvider34___get_latest_finalized_blocknumberNtB6_11Expectation11return_oncepEBc_
FNDA:0,_RINvMs6_NtNtNtCs5Xp1JEPGtUd_17fossil_headers_db5mocks50___mock_MockEthereumRpcProvider_EthereumRpcProvider34___get_latest_finalized_blocknumberNtB6_11Expectation12return_constpEBc_
FNDA:0,_RINvMs6_NtNtNtCs5Xp1JEPGtUd_17fossil_headers_db5mocks50___mock_MockEthereumRpcProvider_EthereumRpcProvider34___get_latest_finalized_blocknumberNtB6_11Expectation12returning_stpEBc_
FNDA:0,_RINvMs6_NtNtNtCs5Xp1JEPGtUd_17fossil_headers_db5mocks50___mock_MockEthereumRpcProvider_EthereumRpcProvider34___get_latest_finalized_blocknumberNtB6_11Expectation14return_once_stpEBc_
FNDA:0,_RINvMs6_NtNtNtCs5Xp1JEPGtUd_17fossil_headers_db5mocks50___mock_MockEthereumRpcProvider_EthereumRpcProvider34___get_latest_finalized_blocknumberNtB6_11Expectation15return_const_stpEBc_
FNDA:0,_RINvMs6_NtNtNtCs5Xp1JEPGtUd_17fossil_headers_db5mocks50___mock_MockEthereumRpcProvider_EthereumRpcProvider34___get_latest_finalized_blocknumberNtB6_11Expectation4withpEBc_
FNDA:0,_RINvMs6_NtNtNtCs5Xp1JEPGtUd_17fossil_headers_db5mocks50___mock_MockEthereumRpcProvider_EthereumRpcProvider34___get_latest_finalized_blocknumberNtB6_11Expectation5timespEBc_
FNDA:0,_RINvMs6_NtNtNtCs5Xp1JEPGtUd_17fossil_headers_db5mocks50___mock_MockEthereumRpcProvider_EthereumRpcProvider34___get_latest_finalized_blocknumberNtB6_11Expectation5withfpEBc_
FNDA:0,_RINvMs6_NtNtNtCs5Xp1JEPGtUd_17fossil_headers_db5mocks50___mock_MockEthereumRpcProvider_EthereumRpcProvider34___get_latest_finalized_blocknumberNtB6_11Expectation8withf_stpEBc_
FNDA:0,_RINvMs6_NtNtNtCs5Xp1JEPGtUd_17fossil_headers_db5mocks50___mock_MockEthereumRpcProvider_EthereumRpcProvider34___get_latest_finalized_blocknumberNtB6_11Expectation9returningpEBc_
FNDA:0,_RNCINvMs6_NtNtNtCs5Xp1JEPGtUd_17fossil_headers_db5mocks44___mock_MockDatabaseProvider_DatabaseProvider14___block_existsNtB8_11Expectation12return_constpE0Be_
FNDA:0,_RNCINvMs6_NtNtNtCs5Xp1JEPGtUd_17fossil_headers_db5mocks44___mock_MockDatabaseProvider_DatabaseProvider14___block_existsNtB8_11Expectation15return_const_stpE0Be_
FNDA:0,_RNCINvMs6_NtNtNtCs5Xp1JEPGtUd_17fossil_headers_db5mocks44___mock_MockDatabaseProvider_DatabaseProvider16___find_first_gapNtB8_11Expectation12return_constpE0Be_
FNDA:0,_RNCINvMs6_NtNtNtCs5Xp1JEPGtUd_17fossil_headers_db5mocks44___mock_MockDatabaseProvider_DatabaseProvider16___find_first_gapNtB8_11Expectation15return_const_stpE0Be_
FNDA:0,_RNCINvMs6_NtNtNtCs5Xp1JEPGtUd_17fossil_headers_db5mocks44___mock_MockDatabaseProvider_DatabaseProvider18___check_connectionNtB8_11Expectation12return_constpE0Be_
FNDA:0,_RNCINvMs6_NtNtNtCs5Xp1JEPGtUd_17fossil_headers_db5mocks44___mock_MockDatabaseProvider_DatabaseProvider18___check_connectionNtB8_11Expectation15return_const_stpE0Be_
FNDA:0,_RNCINvMs6_NtNtNtCs5Xp1JEPGtUd_17fossil_headers_db5mocks44___mock_MockDatabaseProvider_DatabaseProvider21___insert_block_headerNtB8_11Expectation12return_constpE0Be_
FNDA:0,_RNCINvMs6_NtNtNtCs5Xp1JEPGtUd_17fossil_headers_db5mocks44___mock_MockDatabaseProvider_DatabaseProvider21___insert_block_headerNtB8_11Expectation15return_const_stpE0Be_
FNDA:0,_RNCINvMs6_NtNtNtCs5Xp1JEPGtUd_17fossil_headers_db5mocks44___mock_MockDatabaseProvider_DatabaseProvider29___get_last_stored_blocknumberNtB8_11Expectation12return_constpE0Be_
FNDA:0,_RNCINvMs6_NtNtNtCs5Xp1JEPGtUd_17fossil_headers_db5mocks44___mock_MockDatabaseProvider_DatabaseProvider29___get_last_stored_blocknumberNtB8_11Expectation15return_const_stpE0Be_
FNDA:0,_RNCINvMs6_NtNtNtCs5Xp1JEPGtUd_17fossil_headers_db5mocks50___mock_MockEthereumRpcProvider_EthereumRpcProvider26___get_full_block_by_numberNtB8_11Expectation12return_constpE0Be_
FNDA:0,_RNCINvMs6_NtNtNtCs5Xp1JEPGtUd_17fossil_headers_db5mocks50___mock_MockEthereumRpcProvider_EthereumRpcProvider26___get_full_block_by_numberNtB8_11Expectation15return_const_stpE0Be_
FNDA:0,_RNCINvMs6_NtNtNtCs5Xp1JEPGtUd_17fossil_headers_db5mocks50___mock_MockEthereumRpcProvider_EthereumRpcProvider34___get_latest_finalized_blocknumberNtB8_11Expectation12return_constpE0Be_
FNDA:0,_RNCINvMs6_NtNtNtCs5Xp1JEPGtUd_17fossil_headers_db5mocks50___mock_MockEthereumRpcProvider_EthereumRpcProvider34___get_latest_finalized_blocknumberNtB8_11Expectation15return_const_stpE0Be_
FNDA:0,_RNCNvMs0_NtNtNtCs5Xp1JEPGtUd_17fossil_headers_db5mocks44___mock_MockDatabaseProvider_DatabaseProvider14___block_existsNtB7_7Matcher7matches0Bd_
FNDA:0,_RNCNvMs0_NtNtNtCs5Xp1JEPGtUd_17fossil_headers_db5mocks44___mock_MockDatabaseProvider_DatabaseProvider16___find_first_gapNtB7_7Matcher7matches0Bd_
FNDA:0,_RNCNvMs0_NtNtNtCs5Xp1JEPGtUd_17fossil_headers_db5mocks44___mock_MockDatabaseProvider_DatabaseProvider18___check_connectionNtB7_7Matcher7matches0Bd_
FNDA:0,_RNCNvMs0_NtNtNtCs5Xp1JEPGtUd_17fossil_headers_db5mocks44___mock_MockDatabaseProvider_DatabaseProvider21___insert_block_headerNtB7_7Matcher7matches0Bd_
FNDA:0,_RNCNvMs0_NtNtNtCs5Xp1JEPGtUd_17fossil_headers_db5mocks44___mock_MockDatabaseProvider_DatabaseProvider29___get_last_stored_blocknumberNtB7_7Matcher7matches0Bd_
FNDA:0,_RNCNvMs0_NtNtNtCs5Xp1JEPGtUd_17fossil_headers_db5mocks50___mock_MockEthereumRpcProvider_EthereumRpcProvider26___get_full_block_by_numberNtB7_7Matcher7matches0Bd_
FNDA:0,_RNCNvMs0_NtNtNtCs5Xp1JEPGtUd_17fossil_headers_db5mocks50___mock_MockEthereumRpcProvider_EthereumRpcProvider34___get_latest_finalized_blocknumberNtB7_7Matcher7matches0Bd_
FNDA:0,_RNCNvMsa_NtNtNtCs5Xp1JEPGtUd_17fossil_headers_db5mocks44___mock_MockDatabaseProvider_DatabaseProvider14___block_existsNtB7_12Expectations4call0Bd_
FNDA:0,_RNCNvMsa_NtNtNtCs5Xp1JEPGtUd_17fossil_headers_db5mocks44___mock_MockDatabaseProvider_DatabaseProvider14___block_existsNtB7_12Expectations4calls_0Bd_
FNDA:0,_RNCNvMsa_NtNtNtCs5Xp1JEPGtUd_17fossil_headers_db5mocks44___mock_MockDatabaseProvider_DatabaseProvider16___find_first_gapNtB7_12Expectations4call0Bd_
FNDA:0,_RNCNvMsa_NtNtNtCs5Xp1JEPGtUd_17fossil_headers_db5mocks44___mock_MockDatabaseProvider_DatabaseProvider16___find_first_gapNtB7_12Expectations4calls_0Bd_
FNDA:0,_RNCNvMsa_NtNtNtCs5Xp1JEPGtUd_17fossil_headers_db5mocks44___mock_MockDatabaseProvider_DatabaseProvider18___check_connectionNtB7_12Expectations4call0Bd_
FNDA:0,_RNCNvMsa_NtNtNtCs5Xp1JEPGtUd_17fossil_headers_db5mocks44___mock_MockDatabaseProvider_DatabaseProvider18___check_connectionNtB7_12Expectations4calls_0Bd_
FNDA:0,_RNCNvMsa_NtNtNtCs5Xp1JEPGtUd_17fossil_headers_db5mocks44___mock_MockDatabaseProvider_DatabaseProvider21___insert_block_headerNtB7_12Expectations4call0Bd_
FNDA:0,_RNCNvMsa_NtNtNtCs5Xp1JEPGtUd_17fossil_headers_db5mocks44___mock_MockDatabaseProvider_DatabaseProvider21___insert_block_headerNtB7_12Expectations4calls_0Bd_
FNDA:0,_RNCNvMsa_NtNtNtCs5Xp1JEPGtUd_17fossil_headers_db5mocks44___mock_MockDatabaseProvider_DatabaseProvider29___get_last_stored_blocknumberNtB7_12Expectations4call0Bd_
FNDA:0,_RNCNvMsa_NtNtNtCs5Xp1JEPGtUd_17fossil_headers_db5mocks44___mock_MockDatabaseProvider_DatabaseProvider29___get_last_stored_blocknumberNtB7_12Expectations4calls_0Bd_
FNDA:0,_RNCNvMsa_NtNtNtCs5Xp1JEPGtUd_17fossil_headers_db5mocks50___mock_MockEthereumRpcProvider_EthereumRpcProvider26___get_full_block_by_numberNtB7_12Expectations4call0Bd_
FNDA:0,_RNCNvMsa_NtNtNtCs5Xp1JEPGtUd_17fossil_headers_db5mocks50___mock_MockEthereumRpcProvider_EthereumRpcProvider26___get_full_block_by_numberNtB7_12Expectations4calls_0Bd_
FNDA:0,_RNCNvMsa_NtNtNtCs5Xp1JEPGtUd_17fossil_headers_db5mocks50___mock_MockEthereumRpcProvider_EthereumRpcProvider34___get_latest_finalized_blocknumberNtB7_12Expectations4call0Bd_
FNDA:0,_RNCNvMsa_NtNtNtCs5Xp1JEPGtUd_17fossil_headers_db5mocks50___mock_MockEthereumRpcProvider_EthereumRpcProvider34___get_latest_finalized_blocknumberNtB7_12Expectations4calls_0Bd_
FNDA:0,_RNCNvXs2_NtCs5Xp1JEPGtUd_17fossil_headers_db5mocksNtB7_23MockEthereumRpcProviderNtNtB9_3rpc19EthereumRpcProvider24get_full_block_by_number0B9_
FNDA:0,_RNCNvXs2_NtCs5Xp1JEPGtUd_17fossil_headers_db5mocksNtB7_23MockEthereumRpcProviderNtNtB9_3rpc19EthereumRpcProvider32get_latest_finalized_blocknumber0B9_
FNDA:0,_RNCNvXs9_NtCs5Xp1JEPGtUd_17fossil_headers_db5mocksNtB7_20MockDatabaseProviderNtB7_16DatabaseProvider12block_exists0B9_
FNDA:0,_RNCNvXs9_NtCs5Xp1JEPGtUd_17fossil_headers_db5mocksNtB7_20MockDatabaseProviderNtB7_16DatabaseProvider14find_first_gap0B9_
FNDA:0,_RNCNvXs9_NtCs5Xp1JEPGtUd_17fossil_headers_db5mocksNtB7_20MockDatabaseProviderNtB7_16DatabaseProvider16check_connection0B9_
FNDA:0,_RNCNvXs9_NtCs5Xp1JEPGtUd_17fossil_headers_db5mocksNtB7_20MockDatabaseProviderNtB7_16DatabaseProvider19insert_block_header0B9_
FNDA:0,_RNCNvXs9_NtCs5Xp1JEPGtUd_17fossil_headers_db5mocksNtB7_20MockDatabaseProviderNtB7_16DatabaseProvider27get_last_stored_blocknumber0B9_
FNDA:0,_RNvMNtNtNtCs5Xp1JEPGtUd_17fossil_headers_db5mocks44___mock_MockDatabaseProvider_DatabaseProvider14___block_existsNtB2_5Rfunc8call_mut
FNDA:0,_RNvMNtNtNtCs5Xp1JEPGtUd_17fossil_headers_db5mocks44___mock_MockDatabaseProvider_DatabaseProvider16___find_first_gapNtB2_5Rfunc8call_mut
FNDA:0,_RNvMNtNtNtCs5Xp1JEPGtUd_17fossil_headers_db5mocks44___mock_MockDatabaseProvider_DatabaseProvider18___check_connectionNtB2_5Rfunc8call_mut
FNDA:0,_RNvMNtNtNtCs5Xp1JEPGtUd_17fossil_headers_db5mocks44___mock_MockDatabaseProvider_DatabaseProvider21___insert_block_headerNtB2_5Rfunc8call_mut
FNDA:0,_RNvMNtNtNtCs5Xp1JEPGtUd_17fossil_headers_db5mocks44___mock_MockDatabaseProvider_DatabaseProvider29___get_last_stored_blocknumberNtB2_5Rfunc8call_mut
FNDA:0,_RNvMNtNtNtCs5Xp1JEPGtUd_17fossil_headers_db5mocks50___mock_MockEthereumRpcProvider_EthereumRpcProvider26___get_full_block_by_numberNtB2_5Rfunc8call_mut
FNDA:0,_RNvMNtNtNtCs5Xp1JEPGtUd_17fossil_headers_db5mocks50___mock_MockEthereumRpcProvider_EthereumRpcProvider34___get_latest_finalized_blocknumberNtB2_5Rfunc8call_mut
FNDA:0,_RNvMs0_NtCs5Xp1JEPGtUd_17fossil_headers_db5mocksNtB5_43MockEthereumRpcProvider_EthereumRpcProvider10checkpoint
FNDA:0,_RNvMs0_NtNtNtCs5Xp1JEPGtUd_17fossil_headers_db5mocks44___mock_MockDatabaseProvider_DatabaseProvider14___block_existsNtB5_7Matcher7matches
FNDA:0,_RNvMs0_NtNtNtCs5Xp1JEPGtUd_17fossil_headers_db5mocks44___mock_MockDatabaseProvider_DatabaseProvider16___find_first_gapNtB5_7Matcher7matches
FNDA:0,_RNvMs0_NtNtNtCs5Xp1JEPGtUd_17fossil_headers_db5mocks44___mock_MockDatabaseProvider_DatabaseProvider18___check_connectionNtB5_7Matcher7matches
FNDA:0,_RNvMs0_NtNtNtCs5Xp1JEPGtUd_17fossil_headers_db5mocks44___mock_MockDatabaseProvider_DatabaseProvider21___insert_block_headerNtB5_7Matcher7matches
FNDA:0,_RNvMs0_NtNtNtCs5Xp1JEPGtUd_17fossil_headers_db5mocks44___mock_MockDatabaseProvider_DatabaseProvider29___get_last_stored_blocknumberNtB5_7Matcher7matches
FNDA:0,_RNvMs0_NtNtNtCs5Xp1JEPGtUd_17fossil_headers_db5mocks50___mock_MockEthereumRpcProvider_EthereumRpcProvider26___get_full_block_by_numberNtB5_7Matcher7matches
FNDA:0,_RNvMs0_NtNtNtCs5Xp1JEPGtUd_17fossil_headers_db5mocks50___mock_MockEthereumRpcProvider_EthereumRpcProvider34___get_latest_finalized_blocknumberNtB5_7Matcher7matches
FNDA:0,_RNvMs1_NtCs5Xp1JEPGtUd_17fossil_headers_db5mocksNtB5_23MockEthereumRpcProvider10checkpoint
FNDA:0,_RNvMs1_NtCs5Xp1JEPGtUd_17fossil_headers_db5mocksNtB5_23MockEthereumRpcProvider3new
FNDA:0,_RNvMs3_NtCs5Xp1JEPGtUd_17fossil_headers_db5mocksNtB5_23MockEthereumRpcProvider31expect_get_full_block_by_number
FNDA:0,_RNvMs3_NtCs5Xp1JEPGtUd_17fossil_headers_db5mocksNtB5_23MockEthereumRpcProvider39expect_get_latest_finalized_blocknumber
FNDA:0,_RNvMs4_NtNtNtCs5Xp1JEPGtUd_17fossil_headers_db5mocks44___mock_MockDatabaseProvider_DatabaseProvider14___block_existsNtB5_6Common11in_sequence
FNDA:0,_RNvMs4_NtNtNtCs5Xp1JEPGtUd_17fossil_headers_db5mocks44___mock_MockDatabaseProvider_DatabaseProvider14___block_existsNtB5_6Common15verify_sequence
FNDA:0,_RNvMs4_NtNtNtCs5Xp1JEPGtUd_17fossil_headers_db5mocks44___mock_MockDatabaseProvider_DatabaseProvider14___block_existsNtB5_6Common16satisfy_sequence
FNDA:0,_RNvMs4_NtNtNtCs5Xp1JEPGtUd_17fossil_headers_db5mocks44___mock_MockDatabaseProvider_DatabaseProvider14___block_existsNtB5_6Common4call
FNDA:0,_RNvMs4_NtNtNtCs5Xp1JEPGtUd_17fossil_headers_db5mocks44___mock_MockDatabaseProvider_DatabaseProvider14___block_existsNtB5_6Common5never
FNDA:0,_RNvMs4_NtNtNtCs5Xp1JEPGtUd_17fossil_headers_db5mocks44___mock_MockDatabaseProvider_DatabaseProvider14___block_existsNtB5_6Common7is_done
FNDA:0,_RNvMs4_NtNtNtCs5Xp1JEPGtUd_17fossil_headers_db5mocks44___mock_MockDatabaseProvider_DatabaseProvider14___block_existsNtB5_6Common7matches
FNDA:0,_RNvMs4_NtNtNtCs5Xp1JEPGtUd_17fossil_headers_db5mocks44___mock_MockDatabaseProvider_DatabaseProvider16___find_first_gapNtB5_6Common11in_sequence
FNDA:0,_RNvMs4_NtNtNtCs5Xp1JEPGtUd_17fossil_headers_db5mocks44___mock_MockDatabaseProvider_DatabaseProvider16___find_first_gapNtB5_6Common15verify_sequence
FNDA:0,_RNvMs4_NtNtNtCs5Xp1JEPGtUd_17fossil_headers_db5mocks44___mock_MockDatabaseProvider_DatabaseProvider16___find_first_gapNtB5_6Common16satisfy_sequence
FNDA:0,_RNvMs4_NtNtNtCs5Xp1JEPGtUd_17fossil_headers_db5mocks44___mock_MockDatabaseProvider_DatabaseProvider16___find_first_gapNtB5_6Common4call
FNDA:0,_RNvMs4_NtNtNtCs5Xp1JEPGtUd_17fossil_headers_db5mocks44___mock_MockDatabaseProvider_DatabaseProvider16___find_first_gapNtB5_6Common5never
FNDA:0,_RNvMs4_NtNtNtCs5Xp1JEPGtUd_17fossil_headers_db5mocks44___mock_MockDatabaseProvider_DatabaseProvider16___find_first_gapNtB5_6Common7is_done
FNDA:0,_RNvMs4_NtNtNtCs5Xp1JEPGtUd_17fossil_headers_db5mocks44___mock_MockDatabaseProvider_DatabaseProvider16___find_first_gapNtB5_6Common7matches
FNDA:0,_RNvMs4_NtNtNtCs5Xp1JEPGtUd_17fossil_headers_db5mocks44___mock_MockDatabaseProvider_DatabaseProvider18___check_connectionNtB5_6Common11in_sequence
FNDA:0,_RNvMs4_NtNtNtCs5Xp1JEPGtUd_17fossil_headers_db5mocks44___mock_MockDatabaseProvider_DatabaseProvider18___check_connectionNtB5_6Common15verify_sequence
FNDA:0,_RNvMs4_NtNtNtCs5Xp1JEPGtUd_17fossil_headers_db5mocks44___mock_MockDatabaseProvider_DatabaseProvider18___check_connectionNtB5_6Common16satisfy_sequence
FNDA:0,_RNvMs4_NtNtNtCs5Xp1JEPGtUd_17fossil_headers_db5mocks44___mock_MockDatabaseProvider_DatabaseProvider18___check_connectionNtB5_6Common4call
FNDA:0,_RNvMs4_NtNtNtCs5Xp1JEPGtUd_17fossil_headers_db5mocks44___mock_MockDatabaseProvider_DatabaseProvider18___check_connectionNtB5_6Common4with
FNDA:0,_RNvMs4_NtNtNtCs5Xp1JEPGtUd_17fossil_headers_db5mocks44___mock_MockDatabaseProvider_DatabaseProvider18___check_connectionNtB5_6Common5never
FNDA:0,_RNvMs4_NtNtNtCs5Xp1JEPGtUd_17fossil_headers_db5mocks44___mock_MockDatabaseProvider_DatabaseProvider18___check_connectionNtB5_6Common7is_done
FNDA:0,_RNvMs4_NtNtNtCs5Xp1JEPGtUd_17fossil_headers_db5mocks44___mock_MockDatabaseProvider_DatabaseProvider18___check_connectionNtB5_6Common7matches
FNDA:0,_RNvMs4_NtNtNtCs5Xp1JEPGtUd_17fossil_headers_db5mocks44___mock_MockDatabaseProvider_DatabaseProvider21___insert_block_headerNtB5_6Common11in_sequence
FNDA:0,_RNvMs4_NtNtNtCs5Xp1JEPGtUd_17fossil_headers_db5mocks44___mock_MockDatabaseProvider_DatabaseProvider21___insert_block_headerNtB5_6Common15verify_sequence
FNDA:0,_RNvMs4_NtNtNtCs5Xp1JEPGtUd_17fossil_headers_db5mocks44___mock_MockDatabaseProvider_DatabaseProvider21___insert_block_headerNtB5_6Common16satisfy_sequence
FNDA:0,_RNvMs4_NtNtNtCs5Xp1JEPGtUd_17fossil_headers_db5mocks44___mock_MockDatabaseProvider_DatabaseProvider21___insert_block_headerNtB5_6Common4call
FNDA:0,_RNvMs4_NtNtNtCs5Xp1JEPGtUd_17fossil_headers_db5mocks44___mock_MockDatabaseProvider_DatabaseProvider21___insert_block_headerNtB5_6Common5never
FNDA:0,_RNvMs4_NtNtNtCs5Xp1JEPGtUd_17fossil_headers_db5mocks44___mock_MockDatabaseProvider_DatabaseProvider21___insert_block_headerNtB5_6Common7is_done
FNDA:0,_RNvMs4_NtNtNtCs5Xp1JEPGtUd_17fossil_headers_db5mocks44___mock_MockDatabaseProvider_DatabaseProvider21___insert_block_headerNtB5_6Common7matches
FNDA:0,_RNvMs4_NtNtNtCs5Xp1JEPGtUd_17fossil_headers_db5mocks44___mock_MockDatabaseProvider_DatabaseProvider29___get_last_stored_blocknumberNtB5_6Common11in_sequence
FNDA:0,_RNvMs4_NtNtNtCs5Xp1JEPGtUd_17fossil_headers_db5mocks44___mock_MockDatabaseProvider_DatabaseProvider29___get_last_stored_blocknumberNtB5_6Common15verify_sequence
FNDA:0,_RNvMs4_NtNtNtCs5Xp1JEPGtUd_17fossil_headers_db5mocks44___mock_MockDatabaseProvider_DatabaseProvider29___get_last_stored_blocknumberNtB5_6Common16satisfy_sequence
FNDA:0,_RNvMs4_NtNtNtCs5Xp1JEPGtUd_17fossil_headers_db5mocks44___mock_MockDatabaseProvider_DatabaseProvider29___get_last_stored_blocknumberNtB5_6Common4call
FNDA:0,_RNvMs4_NtNtNtCs5Xp1JEPGtUd_17fossil_headers_db5mocks44___mock_MockDatabaseProvider_DatabaseProvider29___get_last_stored_blocknumberNtB5_6Common4with
FNDA:0,_RNvMs4_NtNtNtCs5Xp1JEPGtUd_17fossil_headers_db5mocks44___mock_MockDatabaseProvider_DatabaseProvider29___get_last_stored_blocknumberNtB5_6Common5never
FNDA:0,_RNvMs4_NtNtNtCs5Xp1JEPGtUd_17fossil_headers_db5mocks44___mock_MockDatabaseProvider_DatabaseProvider29___get_last_stored_blocknumberNtB5_6Common7is_done
FNDA:0,_RNvMs4_NtNtNtCs5Xp1JEPGtUd_17fossil_headers_db5mocks44___mock_MockDatabaseProvider_DatabaseProvider29___get_last_stored_blocknumberNtB5_6Common7matches
FNDA:0,_RNvMs4_NtNtNtCs5Xp1JEPGtUd_17fossil_headers_db5mocks50___mock_MockEthereumRpcProvider_EthereumRpcProvider26___get_full_block_by_numberNtB5_6Common11in_sequence
FNDA:0,_RNvMs4_NtNtNtCs5Xp1JEPGtUd_17fossil_headers_db5mocks50___mock_MockEthereumRpcProvider_EthereumRpcProvider26___get_full_block_by_numberNtB5_6Common15verify_sequence
FNDA:0,_RNvMs4_NtNtNtCs5Xp1JEPGtUd_17fossil_headers_db5mocks50___mock_MockEthereumRpcProvider_EthereumRpcProvider26___get_full_block_by_numberNtB5_6Common16satisfy_sequence
FNDA:0,_RNvMs4_NtNtNtCs5Xp1JEPGtUd_17fossil_headers_db5mocks50___mock_MockEthereumRpcProvider_EthereumRpcProvider26___get_full_block_by_numberNtB5_6Common4call
FNDA:0,_RNvMs4_NtNtNtCs5Xp1JEPGtUd_17fossil_headers_db5mocks50___mock_MockEthereumRpcProvider_EthereumRpcProvider26___get_full_block_by_numberNtB5_6Common5never
FNDA:0,_RNvMs4_NtNtNtCs5Xp1JEPGtUd_17fossil_headers_db5mocks50___mock_MockEthereumRpcProvider_EthereumRpcProvider26___get_full_block_by_numberNtB5_6Common7is_done
FNDA:0,_RNvMs4_NtNtNtCs5Xp1JEPGtUd_17fossil_headers_db5mocks50___mock_MockEthereumRpcProvider_EthereumRpcProvider26___get_full_block_by_numberNtB5_6Common7matches
FNDA:0,_RNvMs4_NtNtNtCs5Xp1JEPGtUd_17fossil_headers_db5mocks50___mock_MockEthereumRpcProvider_EthereumRpcProvider34___get_latest_finalized_blocknumberNtB5_6Common11in_sequence
FNDA:0,_RNvMs4_NtNtNtCs5Xp1JEPGtUd_17fossil_headers_db5mocks50___mock_MockEthereumRpcProvider_EthereumRpcProvider34___get_latest_finalized_blocknumberNtB5_6Common15verify_sequence
FNDA:0,_RNvMs4_NtNtNtCs5Xp1JEPGtUd_17fossil_headers_db5mocks50___mock_MockEthereumRpcProvider_EthereumRpcProvider34___get_latest_finalized_blocknumberNtB5_6Common16satisfy_sequence
FNDA:0,_RNvMs4_NtNtNtCs5Xp1JEPGtUd_17fossil_headers_db5mocks50___mock_MockEthereumRpcProvider_EthereumRpcProvider34___get_latest_finalized_blocknumberNtB5_6Common4call
FNDA:0,_RNvMs4_NtNtNtCs5Xp1JEPGtUd_17fossil_headers_db5mocks50___mock_MockEthereumRpcProvider_EthereumRpcProvider34___get_latest_finalized_blocknumberNtB5_6Common5never
FNDA:0,_RNvMs4_NtNtNtCs5Xp1JEPGtUd_17fossil_headers_db5mocks50___mock_MockEthereumRpcProvider_EthereumRpcProvider34___get_latest_finalized_blocknumberNtB5_6Common7is_done
FNDA:0,_RNvMs4_NtNtNtCs5Xp1JEPGtUd_17fossil_headers_db5mocks50___mock_MockEthereumRpcProvider_EthereumRpcProvider34___get_latest_finalized_blocknumberNtB5_6Common7matches
FNDA:0,_RNvMs6_NtCs5Xp1JEPGtUd_17fossil_headers_db5mocksNtB5_37MockDatabaseProvider_DatabaseProvider10checkpoint
FNDA:0,_RNvMs6_NtNtNtCs5Xp1JEPGtUd_17fossil_headers_db5mocks44___mock_MockDatabaseProvider_DatabaseProvider14___block_existsNtB5_11Expectation11in_sequence
FNDA:0,_RNvMs6_NtNtNtCs5Xp1JEPGtUd_17fossil_headers_db5mocks44___mock_MockDatabaseProvider_DatabaseProvider14___block_existsNtB5_11Expectation3new
FNDA:0,_RNvMs6_NtNtNtCs5Xp1JEPGtUd_17fossil_headers_db5mocks44___mock_MockDatabaseProvider_DatabaseProvider14___block_existsNtB5_11Expectation4call
FNDA:0,_RNvMs6_NtNtNtCs5Xp1JEPGtUd_17fossil_headers_db5mocks44___mock_MockDatabaseProvider_DatabaseProvider14___block_existsNtB5_11Expectation4once
FNDA:0,_RNvMs6_NtNtNtCs5Xp1JEPGtUd_17fossil_headers_db5mocks44___mock_MockDatabaseProvider_DatabaseProvider14___block_existsNtB5_11Expectation5never
FNDA:0,_RNvMs6_NtNtNtCs5Xp1JEPGtUd_17fossil_headers_db5mocks44___mock_MockDatabaseProvider_DatabaseProvider14___block_existsNtB5_11Expectation7is_done
FNDA:0,_RNvMs6_NtNtNtCs5Xp1JEPGtUd_17fossil_headers_db5mocks44___mock_MockDatabaseProvider_DatabaseProvider14___block_existsNtB5_11Expectation7matches
FNDA:0,_RNvMs6_NtNtNtCs5Xp1JEPGtUd_17fossil_headers_db5mocks44___mock_MockDatabaseProvider_DatabaseProvider16___find_first_gapNtB5_11Expectation11in_sequence
FNDA:0,_RNvMs6_NtNtNtCs5Xp1JEPGtUd_17fossil_headers_db5mocks44___mock_MockDatabaseProvider_DatabaseProvider16___find_first_gapNtB5_11Expectation3new
FNDA:0,_RNvMs6_NtNtNtCs5Xp1JEPGtUd_17fossil_headers_db5mocks44___mock_MockDatabaseProvider_DatabaseProvider16___find_first_gapNtB5_11Expectation4call
FNDA:0,_RNvMs6_NtNtNtCs5Xp1JEPGtUd_17fossil_headers_db5mocks44___mock_MockDatabaseProvider_DatabaseProvider16___find_first_gapNtB5_11Expectation4once
FNDA:0,_RNvMs6_NtNtNtCs5Xp1JEPGtUd_17fossil_headers_db5mocks44___mock_MockDatabaseProvider_DatabaseProvider16___find_first_gapNtB5_11Expectation5never
FNDA:0,_RNvMs6_NtNtNtCs5Xp1JEPGtUd_17fossil_headers_db5mocks44___mock_MockDatabaseProvider_DatabaseProvider16___find_first_gapNtB5_11Expectation7is_done
FNDA:0,_RNvMs6_NtNtNtCs5Xp1JEPGtUd_17fossil_headers_db5mocks44___mock_MockDatabaseProvider_DatabaseProvider16___find_first_gapNtB5_11Expectation7matches
FNDA:0,_RNvMs6_NtNtNtCs5Xp1JEPGtUd_17fossil_headers_db5mocks44___mock_MockDatabaseProvider_DatabaseProvider18___check_connectionNtB5_11Expectation11in_sequence
FNDA:0,_RNvMs6_NtNtNtCs5Xp1JEPGtUd_17fossil_headers_db5mocks44___mock_MockDatabaseProvider_DatabaseProvider18___check_connectionNtB5_11Expectation3new
FNDA:0,_RNvMs6_NtNtNtCs5Xp1JEPGtUd_17fossil_headers_db5mocks44___mock_MockDatabaseProvider_DatabaseProvider18___check_connectionNtB5_11Expectation4call
FNDA:0,_RNvMs6_NtNtNtCs5Xp1JEPGtUd_17fossil_headers_db5mocks44___mock_MockDatabaseProvider_DatabaseProvider18___check_connectionNtB5_11Expectation4once
FNDA:0,_RNvMs6_NtNtNtCs5Xp1JEPGtUd_17fossil_headers_db5mocks44___mock_MockDatabaseProvider_DatabaseProvider18___check_connectionNtB5_11Expectation4with
FNDA:0,_RNvMs6_NtNtNtCs5Xp1JEPGtUd_17fossil_headers_db5mocks44___mock_MockDatabaseProvider_DatabaseProvider18___check_connectionNtB5_11Expectation5never
FNDA:0,_RNvMs6_NtNtNtCs5Xp1JEPGtUd_17fossil_headers_db5mocks44___mock_MockDatabaseProvider_DatabaseProvider18___check_connectionNtB5_11Expectation7is_done
FNDA:0,_RNvMs6_NtNtNtCs5Xp1JEPGtUd_17fossil_headers_db5mocks44___mock_MockDatabaseProvider_DatabaseProvider18___check_connectionNtB5_11Expectation7matches
FNDA:0,_RNvMs6_NtNtNtCs5Xp1JEPGtUd_17fossil_headers_db5mocks44___mock_MockDatabaseProvider_DatabaseProvider21___insert_block_headerNtB5_11Expectation11in_sequence
FNDA:0,_RNvMs6_NtNtNtCs5Xp1JEPGtUd_17fossil_headers_db5mocks44___mock_MockDatabaseProvider_DatabaseProvider21___insert_block_headerNtB5_11Expectation3new
FNDA:0,_RNvMs6_NtNtNtCs5Xp1JEPGtUd_17fossil_headers_db5mocks44___mock_MockDatabaseProvider_DatabaseProvider21___insert_block_headerNtB5_11Expectation4call
FNDA:0,_RNvMs6_NtNtNtCs5Xp1JEPGtUd_17fossil_headers_db5mocks44___mock_MockDatabaseProvider_DatabaseProvider21___insert_block_headerNtB5_11Expectation4once
FNDA:0,_RNvMs6_NtNtNtCs5Xp1JEPGtUd_17fossil_headers_db5mocks44___mock_MockDatabaseProvider_DatabaseProvider21___insert_block_headerNtB5_11Expectation5never
FNDA:0,_RNvMs6_NtNtNtCs5Xp1JEPGtUd_17fossil_headers_db5mocks44___mock_MockDatabaseProvider_DatabaseProvider21___insert_block_headerNtB5_11Expectation7is_done
FNDA:0,_RNvMs6_NtNtNtCs5Xp1JEPGtUd_17fossil_headers_db5mocks44___mock_MockDatabaseProvider_DatabaseProvider21___insert_block_headerNtB5_11Expectation7matches
FNDA:0,_RNvMs6_NtNtNtCs5Xp1JEPGtUd_17fossil_headers_db5mocks44___mock_MockDatabaseProvider_DatabaseProvider29___get_last_stored_blocknumberNtB5_11Expectation11in_sequence
FNDA:0,_RNvMs6_NtNtNtCs5Xp1JEPGtUd_17fossil_headers_db5mocks44___mock_MockDatabaseProvider_DatabaseProvider29___get_last_stored_blocknumberNtB5_11Expectation3new
FNDA:0,_RNvMs6_NtNtNtCs5Xp1JEPGtUd_17fossil_headers_db5mocks44___mock_MockDatabaseProvider_DatabaseProvider29___get_last_stored_blocknumberNtB5_11Expectation4call
FNDA:0,_RNvMs6_NtNtNtCs5Xp1JEPGtUd_17fossil_headers_db5mocks44___mock_MockDatabaseProvider_DatabaseProvider29___get_last_stored_blocknumberNtB5_11Expectation4once
FNDA:0,_RNvMs6_NtNtNtCs5Xp1JEPGtUd_17fossil_headers_db5mocks44___mock_MockDatabaseProvider_DatabaseProvider29___get_last_stored_blocknumberNtB5_11Expectation4with
FNDA:0,_RNvMs6_NtNtNtCs5Xp1JEPGtUd_17fossil_headers_db5mocks44___mock_MockDatabaseProvider_DatabaseProvider29___get_last_stored_blocknumberNtB5_11Expectation5never
FNDA:0,_RNvMs6_NtNtNtCs5Xp1JEPGtUd_17fossil_headers_db5mocks44___mock_MockDatabaseProvider_DatabaseProvider29___get_last_stored_blocknumberNtB5_11Expectation7is_done
FNDA:0,_RNvMs6_NtNtNtCs5Xp1JEPGtUd_17fossil_headers_db5mocks44___mock_MockDatabaseProvider_DatabaseProvider29___get_last_stored_blocknumberNtB5_11Expectation7matches
FNDA:0,_RNvMs6_NtNtNtCs5Xp1JEPGtUd_17fossil_headers_db5mocks50___mock_MockEthereumRpcProvider_EthereumRpcProvider26___get_full_block_by_numberNtB5_11Expectation11in_sequence
FNDA:0,_RNvMs6_NtNtNtCs5Xp1JEPGtUd_17fossil_headers_db5mocks50___mock_MockEthereumRpcProvider_EthereumRpcProvider26___get_full_block_by_numberNtB5_11Expectation3new
FNDA:0,_RNvMs6_NtNtNtCs5Xp1JEPGtUd_17fossil_headers_db5mocks50___mock_MockEthereumRpcProvider_EthereumRpcProvider26___get_full_block_by_numberNtB5_11Expectation4call
FNDA:0,_RNvMs6_NtNtNtCs5Xp1JEPGtUd_17fossil_headers_db5mocks50___mock_MockEthereumRpcProvider_EthereumRpcProvider26___get_full_block_by_numberNtB5_11Expectation4once
FNDA:0,_RNvMs6_NtNtNtCs5Xp1JEPGtUd_17fossil_headers_db5mocks50___mock_MockEthereumRpcProvider_EthereumRpcProvider26___get_full_block_by_numberNtB5_11Expectation5never
FNDA:0,_RNvMs6_NtNtNtCs5Xp1JEPGtUd_17fossil_headers_db5mocks50___mock_MockEthereumRpcProvider_EthereumRpcProvider26___get_full_block_by_numberNtB5_11Expectation7is_done
FNDA:0,_RNvMs6_NtNtNtCs5Xp1JEPGtUd_17fossil_headers_db5mocks50___mock_MockEthereumRpcProvider_EthereumRpcProvider26___get_full_block_by_numberNtB5_11Expectation7matches
FNDA:0,_RNvMs6_NtNtNtCs5Xp1JEPGtUd_17fossil_headers_db5mocks50___mock_MockEthereumRpcProvider_EthereumRpcProvider34___get_latest_finalized_blocknumberNtB5_11Expectation11in_sequence
FNDA:0,_RNvMs6_NtNtNtCs5Xp1JEPGtUd_17fossil_headers_db5mocks50___mock_MockEthereumRpcProvider_EthereumRpcProvider34___get_latest_finalized_blocknumberNtB5_11Expectation3new
FNDA:0,_RNvMs6_NtNtNtCs5Xp1JEPGtUd_17fossil_headers_db5mocks50___mock_MockEthereumRpcProvider_EthereumRpcProvider34___get_latest_finalized_blocknumberNtB5_11Expectation4call
FNDA:0,_RNvMs6_NtNtNtCs5Xp1JEPGtUd_17fossil_headers_db5mocks50___mock_MockEthereumRpcProvider_EthereumRpcProvider34___get_latest_finalized_blocknumberNtB5_11Expectation4once
FNDA:0,_RNvMs6_NtNtNtCs5Xp1JEPGtUd_17fossil_headers_db5mocks50___mock_MockEthereumRpcProvider_EthereumRpcProvider34___get_latest_finalized_blocknumberNtB5_11Expectation5never
FNDA:0,_RNvMs6_NtNtNtCs5Xp1JEPGtUd_17fossil_headers_db5mocks50___mock_MockEthereumRpcProvider_EthereumRpcProvider34___get_latest_finalized_blocknumberNtB5_11Expectation7is_done
FNDA:0,_RNvMs6_NtNtNtCs5Xp1JEPGtUd_17fossil_headers_db5mocks50___mock_MockEthereumRpcProvider_EthereumRpcProvider34___get_latest_finalized_blocknumberNtB5_11Expectation7matches
FNDA:0,_RNvMs7_NtCs5Xp1JEPGtUd_17fossil_headers_db5mocksNtB5_20MockDatabaseProvider10checkpoint
FNDA:0,_RNvMs7_NtCs5Xp1JEPGtUd_17fossil_headers_db5mocksNtB5_20MockDatabaseProvider3new
FNDA:0,_RNvMs8_NtCs5Xp1JEPGtUd_17fossil_headers_db5mocksNtB5_20MockDatabaseProvider19expect_block_exists
FNDA:0,_RNvMs8_NtCs5Xp1JEPGtUd_17fossil_headers_db5mocksNtB5_20MockDatabaseProvider21expect_find_first_gap
FNDA:0,_RNvMs8_NtCs5Xp1JEPGtUd_17fossil_headers_db5mocksNtB5_20MockDatabaseProvider23expect_check_connection
FNDA:0,_RNvMs8_NtCs5Xp1JEPGtUd_17fossil_headers_db5mocksNtB5_20MockDatabaseProvider26expect_insert_block_header
FNDA:0,_RNvMs8_NtCs5Xp1JEPGtUd_17fossil_headers_db5mocksNtB5_20MockDatabaseProvider34expect_get_last_stored_blocknumber
FNDA:0,_RNvMs8_NtNtNtCs5Xp1JEPGtUd_17fossil_headers_db5mocks44___mock_MockDatabaseProvider_DatabaseProvider14___block_existsNtB5_12Expectations10checkpoint
FNDA:0,_RNvMs8_NtNtNtCs5Xp1JEPGtUd_17fossil_headers_db5mocks44___mock_MockDatabaseProvider_DatabaseProvider14___block_existsNtB5_12Expectations3new
FNDA:0,_RNvMs8_NtNtNtCs5Xp1JEPGtUd_17fossil_headers_db5mocks44___mock_MockDatabaseProvider_DatabaseProvider14___block_existsNtB5_12Expectations6expect
FNDA:0,_RNvMs8_NtNtNtCs5Xp1JEPGtUd_17fossil_headers_db5mocks44___mock_MockDatabaseProvider_DatabaseProvider16___find_first_gapNtB5_12Expectations10checkpoint
FNDA:0,_RNvMs8_NtNtNtCs5Xp1JEPGtUd_17fossil_headers_db5mocks44___mock_MockDatabaseProvider_DatabaseProvider16___find_first_gapNtB5_12Expectations3new
FNDA:0,_RNvMs8_NtNtNtCs5Xp1JEPGtUd_17fossil_headers_db5mocks44___mock_MockDatabaseProvider_DatabaseProvider16___find_first_gapNtB5_12Expectations6expect
FNDA:0,_RNvMs8_NtNtNtCs5Xp1JEPGtUd_17fossil_headers_db5mocks44___mock_MockDatabaseProvider_DatabaseProvider18___check_connectionNtB5_12Expectations10checkpoint
FNDA:0,_RNvMs8_NtNtNtCs5Xp1JEPGtUd_17fossil_headers_db5mocks44___mock_MockDatabaseProvider_DatabaseProvider18___check_connectionNtB5_12Expectations3new
FNDA:0,_RNvMs8_NtNtNtCs5Xp1JEPGtUd_17fossil_headers_db5mocks44___mock_MockDatabaseProvider_DatabaseProvider18___check_connectionNtB5_12Expectations6expect
FNDA:0,_RNvMs8_NtNtNtCs5Xp1JEPGtUd_17fossil_headers_db5mocks44___mock_MockDatabaseProvider_DatabaseProvider21___insert_block_headerNtB5_12Expectations10checkpoint
FNDA:0,_RNvMs8_NtNtNtCs5Xp1JEPGtUd_17fossil_headers_db5mocks44___mock_MockDatabaseProvider_DatabaseProvider21___insert_block_headerNtB5_12Expectations3new
FNDA:0,_RNvMs8_NtNtNtCs5Xp1JEPGtUd_17fossil_headers_db5mocks44___mock_MockDatabaseProvider_DatabaseProvider21___insert_block_headerNtB5_12Expectations6expect
FNDA:0,_RNvMs8_NtNtNtCs5Xp1JEPGtUd_17fossil_headers_db5mocks44___mock_MockDatabaseProvider_DatabaseProvider29___get_last_stored_blocknumberNtB5_12Expectations10checkpoint
FNDA:0,_RNvMs8_NtNtNtCs5Xp1JEPGtUd_17fossil_headers_db5mocks44___mock_MockDatabaseProvider_DatabaseProvider29___get_last_stored_blocknumberNtB5_12Expectations3new
FNDA:0,_RNvMs8_NtNtNtCs5Xp1JEPGtUd_17fossil_headers_db5mocks44___mock_MockDatabaseProvider_DatabaseProvider29___get_last_stored_blocknumberNtB5_12Expectations6expect
FNDA:0,_RNvMs8_NtNtNtCs5Xp1JEPGtUd_17fossil_headers_db5mocks50___mock_MockEthereumRpcProvider_EthereumRpcProvider26___get_full_block_by_numberNtB5_12Expectations10checkpoint
FNDA:0,_RNvMs8_NtNtNtCs5Xp1JEPGtUd_17fossil_headers_db5mocks50___mock_MockEthereumRpcProvider_EthereumRpcProvider26___get_full_block_by_numberNtB5_12Expectations3new
FNDA:0,_RNvMs8_NtNtNtCs5Xp1JEPGtUd_17fossil_headers_db5mocks50___mock_MockEthereumRpcProvider_EthereumRpcProvider26___get_full_block_by_numberNtB5_12Expectations6expect
FNDA:0,_RNvMs8_NtNtNtCs5Xp1JEPGtUd_17fossil_headers_db5mocks50___mock_MockEthereumRpcProvider_EthereumRpcProvider34___get_latest_finalized_blocknumberNtB5_12Expectations10checkpoint
FNDA:0,_RNvMs8_NtNtNtCs5Xp1JEPGtUd_17fossil_headers_db5mocks50___mock_MockEthereumRpcProvider_EthereumRpcProvider34___get_latest_finalized_blocknumberNtB5_12Expectations3new
FNDA:0,_RNvMs8_NtNtNtCs5Xp1JEPGtUd_17fossil_headers_db5mocks50___mock_MockEthereumRpcProvider_EthereumRpcProvider34___get_latest_finalized_blocknumberNtB5_12Expectations6expect
FNDA:0,_RNvMsa_NtNtNtCs5Xp1JEPGtUd_17fossil_headers_db5mocks44___mock_MockDatabaseProvider_DatabaseProvider14___block_existsNtB5_12Expectations4call
FNDA:0,_RNvMsa_NtNtNtCs5Xp1JEPGtUd_17fossil_headers_db5mocks44___mock_MockDatabaseProvider_DatabaseProvider16___find_first_gapNtB5_12Expectations4call
FNDA:0,_RNvMsa_NtNtNtCs5Xp1JEPGtUd_17fossil_headers_db5mocks44___mock_MockDatabaseProvider_DatabaseProvider18___check_connectionNtB5_12Expectations4call
FNDA:0,_RNvMsa_NtNtNtCs5Xp1JEPGtUd_17fossil_headers_db5mocks44___mock_MockDatabaseProvider_DatabaseProvider21___insert_block_headerNtB5_12Expectations4call
FNDA:0,_RNvMsa_NtNtNtCs5Xp1JEPGtUd_17fossil_headers_db5mocks44___mock_MockDatabaseProvider_DatabaseProvider29___get_last_stored_blocknumberNtB5_12Expectations4call
FNDA:0,_RNvMsa_NtNtNtCs5Xp1JEPGtUd_17fossil_headers_db5mocks50___mock_MockEthereumRpcProvider_EthereumRpcProvider26___get_full_block_by_numberNtB5_12Expectations4call
FNDA:0,_RNvMsa_NtNtNtCs5Xp1JEPGtUd_17fossil_headers_db5mocks50___mock_MockEthereumRpcProvider_EthereumRpcProvider34___get_latest_finalized_blocknumberNtB5_12Expectations4call
FNDA:0,_RNvXNtCs5Xp1JEPGtUd_17fossil_headers_db5mocksNtB2_23MockEthereumRpcProviderNtNtCs66KPHxksi63_4core7default7Default7default
FNDA:0,_RNvXs1_NtNtNtCs5Xp1JEPGtUd_17fossil_headers_db5mocks44___mock_MockDatabaseProvider_DatabaseProvider14___block_existsNtB5_7MatcherNtNtCs66KPHxksi63_4core7default7Default7default
FNDA:0,_RNvXs1_NtNtNtCs5Xp1JEPGtUd_17fossil_headers_db5mocks44___mock_MockDatabaseProvider_DatabaseProvider16___find_first_gapNtB5_7MatcherNtNtCs66KPHxksi63_4core7default7Default7default
FNDA:0,_RNvXs1_NtNtNtCs5Xp1JEPGtUd_17fossil_headers_db5mocks44___mock_MockDatabaseProvider_DatabaseProvider18___check_connectionNtB5_7MatcherNtNtCs66KPHxksi63_4core7default7Default7default
FNDA:0,_RNvXs1_NtNtNtCs5Xp1JEPGtUd_17fossil_headers_db5mocks44___mock_MockDatabaseProvider_DatabaseProvider21___insert_block_headerNtB5_7MatcherNtNtCs66KPHxksi63_4core7default7Default7default
FNDA:0,_RNvXs1_NtNtNtCs5Xp1JEPGtUd_17fossil_headers_db5mocks44___mock_MockDatabaseProvider_DatabaseProvider29___get_last_stored_blocknumberNtB5_7MatcherNtNtCs66KPHxksi63_4core7default7Default7default
FNDA:0,_RNvXs1_NtNtNtCs5Xp1JEPGtUd_17fossil_headers_db5mocks50___mock_MockEthereumRpcProvider_EthereumRpcProvider26___get_full_block_by_numberNtB5_7MatcherNtNtCs66KPHxksi63_4core7default7Default7default
FNDA:0,_RNvXs1_NtNtNtCs5Xp1JEPGtUd_17fossil_headers_db5mocks50___mock_MockEthereumRpcProvider_EthereumRpcProvider34___get_latest_finalized_blocknumberNtB5_7MatcherNtNtCs66KPHxksi63_4core7default7Default7default
FNDA:0,_RNvXs2_NtNtNtCs5Xp1JEPGtUd_17fossil_headers_db5mocks44___mock_MockDatabaseProvider_DatabaseProvider14___block_existsNtB5_7MatcherNtNtCs66KPHxksi63_4core3fmt7Display3fmt
FNDA:0,_RNvXs2_NtNtNtCs5Xp1JEPGtUd_17fossil_headers_db5mocks44___mock_MockDatabaseProvider_DatabaseProvider16___find_first_gapNtB5_7MatcherNtNtCs66KPHxksi63_4core3fmt7Display3fmt
FNDA:0,_RNvXs2_NtNtNtCs5Xp1JEPGtUd_17fossil_headers_db5mocks44___mock_MockDatabaseProvider_DatabaseProvider18___check_connectionNtB5_7MatcherNtNtCs66KPHxksi63_4core3fmt7Display3fmt
FNDA:0,_RNvXs2_NtNtNtCs5Xp1JEPGtUd_17fossil_headers_db5mocks44___mock_MockDatabaseProvider_DatabaseProvider21___insert_block_headerNtB5_7MatcherNtNtCs66KPHxksi63_4core3fmt7Display3fmt
FNDA:0,_RNvXs2_NtNtNtCs5Xp1JEPGtUd_17fossil_headers_db5mocks44___mock_MockDatabaseProvider_DatabaseProvider29___get_last_stored_blocknumberNtB5_7MatcherNtNtCs66KPHxksi63_4core3fmt7Display3fmt
FNDA:0,_RNvXs2_NtNtNtCs5Xp1JEPGtUd_17fossil_headers_db5mocks50___mock_MockEthereumRpcProvider_EthereumRpcProvider26___get_full_block_by_numberNtB5_7MatcherNtNtCs66KPHxksi63_4core3fmt7Display3fmt
FNDA:0,_RNvXs2_NtNtNtCs5Xp1JEPGtUd_17fossil_headers_db5mocks50___mock_MockEthereumRpcProvider_EthereumRpcProvider34___get_latest_finalized_blocknumberNtB5_7MatcherNtNtCs66KPHxksi63_4core3fmt7Display3fmt
FNDA:0,_RNvXs3_NtNtNtCs5Xp1JEPGtUd_17fossil_headers_db5mocks44___mock_MockDatabaseProvider_DatabaseProvider14___block_existsNtB5_6CommonNtNtCs66KPHxksi63_4core7default7Default7default
FNDA:0,_RNvXs3_NtNtNtCs5Xp1JEPGtUd_17fossil_headers_db5mocks44___mock_MockDatabaseProvider_DatabaseProvider16___find_first_gapNtB5_6CommonNtNtCs66KPHxksi63_4core7default7Default7default
FNDA:0,_RNvXs3_NtNtNtCs5Xp1JEPGtUd_17fossil_headers_db5mocks44___mock_MockDatabaseProvider_DatabaseProvider18___check_connectionNtB5_6CommonNtNtCs66KPHxksi63_4core7default7Default7default
FNDA:0,_RNvXs3_NtNtNtCs5Xp1JEPGtUd_17fossil_headers_db5mocks44___mock_MockDatabaseProvider_DatabaseProvider21___insert_block_headerNtB5_6CommonNtNtCs66KPHxksi63_4core7default7Default7default
FNDA:0,_RNvXs3_NtNtNtCs5Xp1JEPGtUd_17fossil_headers_db5mocks44___mock_MockDatabaseProvider_DatabaseProvider29___get_last_stored_blocknumberNtB5_6CommonNtNtCs66KPHxksi63_4core7default7Default7default
FNDA:0,_RNvXs3_NtNtNtCs5Xp1JEPGtUd_17fossil_headers_db5mocks50___mock_MockEthereumRpcProvider_EthereumRpcProvider26___get_full_block_by_numberNtB5_6CommonNtNtCs66KPHxksi63_4core7default7Default7default
FNDA:0,_RNvXs3_NtNtNtCs5Xp1JEPGtUd_17fossil_headers_db5mocks50___mock_MockEthereumRpcProvider_EthereumRpcProvider34___get_latest_finalized_blocknumberNtB5_6CommonNtNtCs66KPHxksi63_4core7default7Default7default
FNDA:0,_RNvXs4_NtCs5Xp1JEPGtUd_17fossil_headers_db5mocksNtB5_20MockDatabaseProviderNtNtCs66KPHxksi63_4core7default7Default7default
FNDA:0,_RNvXs5_NtCs5Xp1JEPGtUd_17fossil_headers_db5mocksNtB5_37MockDatabaseProvider_DatabaseProviderNtNtCs66KPHxksi63_4core7default7Default7default
FNDA:0,_RNvXs5_NtNtNtCs5Xp1JEPGtUd_17fossil_headers_db5mocks44___mock_MockDatabaseProvider_DatabaseProvider14___block_existsNtB5_6CommonNtNtNtCs66KPHxksi63_4core3ops4drop4Drop4drop
FNDA:0,_RNvXs5_NtNtNtCs5Xp1JEPGtUd_17fossil_headers_db5mocks44___mock_MockDatabaseProvider_DatabaseProvider16___find_first_gapNtB5_6CommonNtNtNtCs66KPHxksi63_4core3ops4drop4Drop4drop
FNDA:0,_RNvXs5_NtNtNtCs5Xp1JEPGtUd_17fossil_headers_db5mocks44___mock_MockDatabaseProvider_DatabaseProvider18___check_connectionNtB5_6CommonNtNtNtCs66KPHxksi63_4core3ops4drop4Drop4drop
FNDA:0,_RNvXs5_NtNtNtCs5Xp1JEPGtUd_17fossil_headers_db5mocks44___mock_MockDatabaseProvider_DatabaseProvider21___insert_block_headerNtB5_6CommonNtNtNtCs66KPHxksi63_4core3ops4drop4Drop4drop
FNDA:0,_RNvXs5_NtNtNtCs5Xp1JEPGtUd_17fossil_headers_db5mocks44___mock_MockDatabaseProvider_DatabaseProvider29___get_last_stored_blocknumberNtB5_6CommonNtNtNtCs66KPHxksi63_4core3ops4drop4Drop4drop
FNDA:0,_RNvXs5_NtNtNtCs5Xp1JEPGtUd_17fossil_headers_db5mocks50___mock_MockEthereumRpcProvider_EthereumRpcProvider26___get_full_block_by_numberNtB5_6CommonNtNtNtCs66KPHxksi63_4core3ops4drop4Drop4drop
FNDA:0,_RNvXs5_NtNtNtCs5Xp1JEPGtUd_17fossil_headers_db5mocks50___mock_MockEthereumRpcProvider_EthereumRpcProvider34___get_latest_finalized_blocknumberNtB5_6CommonNtNtNtCs66KPHxksi63_4core3ops4drop4Drop4drop
FNDA:0,_RNvXs7_NtNtNtCs5Xp1JEPGtUd_17fossil_headers_db5mocks44___mock_MockDatabaseProvider_DatabaseProvider14___block_existsNtB5_11ExpectationNtNtCs66KPHxksi63_4core7default7Default7default
FNDA:0,_RNvXs7_NtNtNtCs5Xp1JEPGtUd_17fossil_headers_db5mocks44___mock_MockDatabaseProvider_DatabaseProvider16___find_first_gapNtB5_11ExpectationNtNtCs66KPHxksi63_4core7default7Default7default
FNDA:0,_RNvXs7_NtNtNtCs5Xp1JEPGtUd_17fossil_headers_db5mocks44___mock_MockDatabaseProvider_DatabaseProvider18___check_connectionNtB5_11ExpectationNtNtCs66KPHxksi63_4core7default7Default7default
FNDA:0,_RNvXs7_NtNtNtCs5Xp1JEPGtUd_17fossil_headers_db5mocks44___mock_MockDatabaseProvider_DatabaseProvider21___insert_block_headerNtB5_11ExpectationNtNtCs66KPHxksi63_4core7default7Default7default
FNDA:0,_RNvXs7_NtNtNtCs5Xp1JEPGtUd_17fossil_headers_db5mocks44___mock_MockDatabaseProvider_DatabaseProvider29___get_last_stored_blocknumberNtB5_11ExpectationNtNtCs66KPHxksi63_4core7default7Default7default
FNDA:0,_RNvXs7_NtNtNtCs5Xp1JEPGtUd_17fossil_headers_db5mocks50___mock_MockEthereumRpcProvider_EthereumRpcProvider26___get_full_block_by_numberNtB5_11ExpectationNtNtCs66KPHxksi63_4core7default7Default7default
FNDA:0,_RNvXs7_NtNtNtCs5Xp1JEPGtUd_17fossil_headers_db5mocks50___mock_MockEthereumRpcProvider_EthereumRpcProvider34___get_latest_finalized_blocknumberNtB5_11ExpectationNtNtCs66KPHxksi63_4core7default7Default7default
FNDA:0,_RNvXs9_NtCs5Xp1JEPGtUd_17fossil_headers_db5mocksNtB5_20MockDatabaseProviderNtB5_16DatabaseProvider12block_exists
FNDA:0,_RNvXs9_NtCs5Xp1JEPGtUd_17fossil_headers_db5mocksNtB5_20MockDatabaseProviderNtB5_16DatabaseProvider14find_first_gap
FNDA:0,_RNvXs9_NtCs5Xp1JEPGtUd_17fossil_headers_db5mocksNtB5_20MockDatabaseProviderNtB5_16DatabaseProvider16check_connection
FNDA:0,_RNvXs9_NtCs5Xp1JEPGtUd_17fossil_headers_db5mocksNtB5_20MockDatabaseProviderNtB5_16DatabaseProvider19insert_block_header
FNDA:0,_RNvXs9_NtCs5Xp1JEPGtUd_17fossil_headers_db5mocksNtB5_20MockDatabaseProviderNtB5_16DatabaseProvider27get_last_stored_blocknumber
FNDA:0,_RNvXs9_NtNtNtCs5Xp1JEPGtUd_17fossil_headers_db5mocks44___mock_MockDatabaseProvider_DatabaseProvider14___block_existsNtB5_12ExpectationsNtNtCs66KPHxksi63_4core7default7Default7default
FNDA:0,_RNvXs9_NtNtNtCs5Xp1JEPGtUd_17fossil_headers_db5mocks44___mock_MockDatabaseProvider_DatabaseProvider16___find_first_gapNtB5_12ExpectationsNtNtCs66KPHxksi63_4core7default7Default7default
FNDA:0,_RNvXs9_NtNtNtCs5Xp1JEPGtUd_17fossil_headers_db5mocks44___mock_MockDatabaseProvider_DatabaseProvider18___check_connectionNtB5_12ExpectationsNtNtCs66KPHxksi63_4core7default7Default7default
FNDA:0,_RNvXs9_NtNtNtCs5Xp1JEPGtUd_17fossil_headers_db5mocks44___mock_MockDatabaseProvider_DatabaseProvider21___insert_block_headerNtB5_12ExpectationsNtNtCs66KPHxksi63_4core7default7Default7default
FNDA:0,_RNvXs9_NtNtNtCs5Xp1JEPGtUd_17fossil_headers_db5mocks44___mock_MockDatabaseProvider_DatabaseProvider29___get_last_stored_blocknumberNtB5_12ExpectationsNtNtCs66KPHxksi63_4core7default7Default7default
FNDA:0,_RNvXs9_NtNtNtCs5Xp1JEPGtUd_17fossil_headers_db5mocks50___mock_MockEthereumRpcProvider_EthereumRpcProvider26___get_full_block_by_numberNtB5_12ExpectationsNtNtCs66KPHxksi63_4core7default7Default7default
FNDA:0,_RNvXs9_NtNtNtCs5Xp1JEPGtUd_17fossil_headers_db5mocks50___mock_MockEthereumRpcProvider_EthereumRpcProvider34___get_latest_finalized_blocknumberNtB5_12ExpectationsNtNtCs66KPHxksi63_4core7default7Default7default
FNDA:0,_RNvXs_NtCs5Xp1JEPGtUd_17fossil_headers_db5mocksNtB4_43MockEthereumRpcProvider_EthereumRpcProviderNtNtCs66KPHxksi63_4core7default7Default7default
FNDA:0,_RNvXs_NtNtNtCs5Xp1JEPGtUd_17fossil_headers_db5mocks44___mock_MockDatabaseProvider_DatabaseProvider14___block_existsNtB4_5RfuncNtNtCs66KPHxksi63_4core7default7Default7default
FNDA:0,_RNvXs_NtNtNtCs5Xp1JEPGtUd_17fossil_headers_db5mocks44___mock_MockDatabaseProvider_DatabaseProvider16___find_first_gapNtB4_5RfuncNtNtCs66KPHxksi63_4core7default7Default7default
FNDA:0,_RNvXs_NtNtNtCs5Xp1JEPGtUd_17fossil_headers_db5mocks44___mock_MockDatabaseProvider_DatabaseProvider18___check_connectionNtB4_5RfuncNtNtCs66KPHxksi63_4core7default7Default7default
FNDA:0,_RNvXs_NtNtNtCs5Xp1JEPGtUd_17fossil_headers_db5mocks44___mock_MockDatabaseProvider_DatabaseProvider21___insert_block_headerNtB4_5RfuncNtNtCs66KPHxksi63_4core7default7Default7default
FNDA:0,_RNvXs_NtNtNtCs5Xp1JEPGtUd_17fossil_headers_db5mocks44___mock_MockDatabaseProvider_DatabaseProvider29___get_last_stored_blocknumberNtB4_5RfuncNtNtCs66KPHxksi63_4core7default7Default7default
FNDA:0,_RNvXs_NtNtNtCs5Xp1JEPGtUd_17fossil_headers_db5mocks50___mock_MockEthereumRpcProvider_EthereumRpcProvider26___get_full_block_by_numberNtB4_5RfuncNtNtCs66KPHxksi63_4core7default7Default7default
FNDA:0,_RNvXs_NtNtNtCs5Xp1JEPGtUd_17fossil_headers_db5mocks50___mock_MockEthereumRpcProvider_EthereumRpcProvider34___get_latest_finalized_blocknumberNtB4_5RfuncNtNtCs66KPHxksi63_4core7default7Default7default
FNF:4
FNH:0
DA:53,0
DA:55,0
DA:56,0
DA:57,0
DA:58,0
DA:61,0
DA:97,0
BRF:0
BRH:0
LF:7
LH:0
end_of_record
SF:/home/ametel/source/fossil-headers-db/src/property_tests.rs
FN:318,_RNvNtNtCs5Xp1JEPGtUd_17fossil_headers_db14property_tests15edge_case_testss_16test_only_prefix
FN:310,_RNvNtNtCs5Xp1JEPGtUd_17fossil_headers_db14property_tests15edge_case_testss_18test_empty_strings
FN:326,_RNvNtNtCs5Xp1JEPGtUd_17fossil_headers_db14property_tests15edge_case_testss_25test_case_insensitive_hex
FN:337,_RNvNtNtCs5Xp1JEPGtUd_17fossil_headers_db14property_tests15edge_case_testss_29test_block_number_edge_values
FN:42,_RNvNtCs5Xp1JEPGtUd_17fossil_headers_db14property_tests10hex_string
FN:70,_RNvNtCs5Xp1JEPGtUd_17fossil_headers_db14property_tests12non_hex_char
FN:75,_RNvNtCs5Xp1JEPGtUd_17fossil_headers_db14property_tests18invalid_hex_string
FN:60,_RNvNtCs5Xp1JEPGtUd_17fossil_headers_db14property_tests18valid_block_number
FN:65,_RNvNtCs5Xp1JEPGtUd_17fossil_headers_db14property_tests20invalid_block_number
FN:47,_RNvNtCs5Xp1JEPGtUd_17fossil_headers_db14property_tests22hex_string_with_prefix
FN:14,_RNvNtCs5Xp1JEPGtUd_17fossil_headers_db14property_tests8hex_char
FN:78,_RNCNCNvNtCs5Xp1JEPGtUd_17fossil_headers_db14property_tests18invalid_hex_string00B7_
FN:43,_RNCNvNtCs5Xp1JEPGtUd_17fossil_headers_db14property_tests10hex_string0B5_
FN:71,_RNCNvNtCs5Xp1JEPGtUd_17fossil_headers_db14property_tests12non_hex_char0B5_
FN:77,_RNCNvNtCs5Xp1JEPGtUd_17fossil_headers_db14property_tests18invalid_hex_string0B5_
FN:80,_RNCNvNtCs5Xp1JEPGtUd_17fossil_headers_db14property_tests18invalid_hex_strings_0B5_
FN:49,_RNCNvNtCs5Xp1JEPGtUd_17fossil_headers_db14property_tests22hex_string_with_prefix0B5_
FNDA:1,_RNvNtNtCs5Xp1JEPGtUd_17fossil_headers_db14property_tests15edge_case_testss_16test_only_prefix
FNDA:1,_RNvNtNtCs5Xp1JEPGtUd_17fossil_headers_db14property_tests15edge_case_testss_18test_empty_strings
FNDA:1,_RNvNtNtCs5Xp1JEPGtUd_17fossil_headers_db14property_tests15edge_case_testss_25test_case_insensitive_hex
FNDA:1,_RNvNtNtCs5Xp1JEPGtUd_17fossil_headers_db14property_tests15edge_case_testss_29test_block_number_edge_values
FNDA:9,_RNvNtCs5Xp1JEPGtUd_17fossil_headers_db14property_tests10hex_string
FNDA:3,_RNvNtCs5Xp1JEPGtUd_17fossil_headers_db14property_tests12non_hex_char
FNDA:3,_RNvNtCs5Xp1JEPGtUd_17fossil_headers_db14property_tests18invalid_hex_string
FNDA:3,_RNvNtCs5Xp1JEPGtUd_17fossil_headers_db14property_tests18valid_block_number
FNDA:1,_RNvNtCs5Xp1JEPGtUd_17fossil_headers_db14property_tests20invalid_block_number
FNDA:9,_RNvNtCs5Xp1JEPGtUd_17fossil_headers_db14property_tests22hex_string_with_prefix
FNDA:12,_RNvNtCs5Xp1JEPGtUd_17fossil_headers_db14property_tests8hex_char
FNDA:1516,_RNCNCNvNtCs5Xp1JEPGtUd_17fossil_headers_db14property_tests18invalid_hex_string00B7_
FNDA:4587,_RNCNvNtCs5Xp1JEPGtUd_17fossil_headers_db14property_tests10hex_string0B5_
FNDA:22909,_RNCNvNtCs5Xp1JEPGtUd_17fossil_headers_db14property_tests12non_hex_char0B5_
FNDA:768,_RNCNvNtCs5Xp1JEPGtUd_17fossil_headers_db14property_tests18invalid_hex_string0B5_
FNDA:768,_RNCNvNtCs5Xp1JEPGtUd_17fossil_headers_db14property_tests18invalid_hex_strings_0B5_
FNDA:4587,_RNCNvNtCs5Xp1JEPGtUd_17fossil_headers_db14property_tests22hex_string_with_prefix0B5_
FNF:17
FNH:17
DA:14,12
DA:15,12
DA:16,12
DA:17,12
DA:18,12
DA:19,12
DA:20,12
DA:21,12
DA:22,12
DA:23,12
DA:24,12
DA:25,12
DA:26,12
DA:27,12
DA:28,12
DA:29,12
DA:30,12
DA:31,12
DA:32,12
DA:33,12
DA:34,12
DA:35,12
DA:36,12
DA:37,12
DA:39,12
DA:42,9
DA:43,4587
DA:44,9
DA:47,9
DA:48,9
DA:49,4587
DA:50,4587
DA:51,2226
DA:53,2361
DA:55,4587
DA:57,9
DA:60,3
DA:61,3
DA:62,3
DA:65,1
DA:66,1
DA:67,1
DA:70,3
DA:71,22909
DA:72,3
DA:75,3
DA:76,3
DA:77,768
DA:78,1516
DA:79,768
DA:80,768
DA:81,3
DA:310,1
DA:311,1
DA:312,1
DA:313,1
DA:314,1
DA:315,1
DA:318,1
DA:319,1
DA:320,1
DA:321,1
DA:322,1
DA:323,1
DA:326,1
DA:328,1
DA:329,1
DA:330,1
DA:332,1
DA:333,1
DA:334,1
DA:337,1
DA:339,1
DA:342,1
DA:343,1
DA:346,1
DA:347,1
BRF:0
BRH:0
LF:82
LH:82
end_of_record
SF:/home/ametel/source/fossil-headers-db/src/repositories/block_header.rs
FN:264,_RNCNCNvNtNtCscwo6F0TH2eV_17fossil_headers_db12repositories12block_header22insert_block_txs_query00B9_
FN:177,_RNCNCNvNtNtCscwo6F0TH2eV_17fossil_headers_db12repositories12block_header25insert_block_header_query00B9_
FN:323,_RNCNCNvNtNtCscwo6F0TH2eV_17fossil_headers_db12repositories12block_header30insert_block_header_only_query00B9_
FN:245,_RNCNvNtNtCscwo6F0TH2eV_17fossil_headers_db12repositories12block_header22insert_block_txs_query0B7_
FN:150,_RNCNvNtNtCscwo6F0TH2eV_17fossil_headers_db12repositories12block_header25insert_block_header_query0B7_
FN:70,_RNCNvNtNtCscwo6F0TH2eV_17fossil_headers_db12repositories12block_header30convert_rpc_blockheader_to_dto0B7_
FN:82,_RNCNvNtNtCscwo6F0TH2eV_17fossil_headers_db12repositories12block_header30convert_rpc_blockheader_to_dtos0_0B7_
FN:76,_RNCNvNtNtCscwo6F0TH2eV_17fossil_headers_db12repositories12block_header30convert_rpc_blockheader_to_dtos_0B7_
FN:131,_RNCNvNtNtCscwo6F0TH2eV_17fossil_headers_db12repositories12block_header30convert_rpc_transaction_to_dto0B7_
FN:139,_RNCNvNtNtCscwo6F0TH2eV_17fossil_headers_db12repositories12block_header30convert_rpc_transaction_to_dtos0_0B7_
FN:135,_RNCNvNtNtCscwo6F0TH2eV_17fossil_headers_db12repositories12block_header30convert_rpc_transaction_to_dtos_0B7_
FN:302,_RNCNvNtNtCscwo6F0TH2eV_17fossil_headers_db12repositories12block_header30insert_block_header_only_query0B7_
FN:242,_RNvNtNtCscwo6F0TH2eV_17fossil_headers_db12repositories12block_header22insert_block_txs_query
FN:147,_RNvNtNtCscwo6F0TH2eV_17fossil_headers_db12repositories12block_header25insert_block_header_query
FN:63,_RNvNtNtCscwo6F0TH2eV_17fossil_headers_db12repositories12block_header30convert_rpc_blockheader_to_dto
FN:117,_RNvNtNtCscwo6F0TH2eV_17fossil_headers_db12repositories12block_header30convert_rpc_transaction_to_dto
FN:299,_RNvNtNtCscwo6F0TH2eV_17fossil_headers_db12repositories12block_header30insert_block_header_only_query
FN:242,_RNvNtNtCs5Xp1JEPGtUd_17fossil_headers_db12repositories12block_header22insert_block_txs_query
FN:147,_RNvNtNtCs5Xp1JEPGtUd_17fossil_headers_db12repositories12block_header25insert_block_header_query
FN:63,_RNvNtNtCs5Xp1JEPGtUd_17fossil_headers_db12repositories12block_header30convert_rpc_blockheader_to_dto
FN:117,_RNvNtNtCs5Xp1JEPGtUd_17fossil_headers_db12repositories12block_header30convert_rpc_transaction_to_dto
FN:299,_RNvNtNtCs5Xp1JEPGtUd_17fossil_headers_db12repositories12block_header30insert_block_header_only_query
FN:448,_RNCNvNtNtNtCs5Xp1JEPGtUd_17fossil_headers_db12repositories12block_header5tests22get_fixtures_for_tests0B9_
FN:395,_RNCNvNtNtNtCs5Xp1JEPGtUd_17fossil_headers_db12repositories12block_header5tests22get_test_db_connection0B9_
FN:264,_RNCNCNvNtNtCs5Xp1JEPGtUd_17fossil_headers_db12repositories12block_header22insert_block_txs_query00B9_
FN:177,_RNCNCNvNtNtCs5Xp1JEPGtUd_17fossil_headers_db12repositories12block_header25insert_block_header_query00B9_
FN:323,_RNCNCNvNtNtCs5Xp1JEPGtUd_17fossil_headers_db12repositories12block_header30insert_block_header_only_query00B9_
FN:245,_RNCNvNtNtCs5Xp1JEPGtUd_17fossil_headers_db12repositories12block_header22insert_block_txs_query0B7_
FN:150,_RNCNvNtNtCs5Xp1JEPGtUd_17fossil_headers_db12repositories12block_header25insert_block_header_query0B7_
FN:70,_RNCNvNtNtCs5Xp1JEPGtUd_17fossil_headers_db12repositories12block_header30convert_rpc_blockheader_to_dto0B7_
FN:82,_RNCNvNtNtCs5Xp1JEPGtUd_17fossil_headers_db12repositories12block_header30convert_rpc_blockheader_to_dtos0_0B7_
FN:76,_RNCNvNtNtCs5Xp1JEPGtUd_17fossil_headers_db12repositories12block_header30convert_rpc_blockheader_to_dtos_0B7_
FN:131,_RNCNvNtNtCs5Xp1JEPGtUd_17fossil_headers_db12repositories12block_header30convert_rpc_transaction_to_dto0B7_
FN:139,_RNCNvNtNtCs5Xp1JEPGtUd_17fossil_headers_db12repositories12block_header30convert_rpc_transaction_to_dtos0_0B7_
FN:135,_RNCNvNtNtCs5Xp1JEPGtUd_17fossil_headers_db12repositories12block_header30convert_rpc_transaction_to_dtos_0B7_
FN:302,_RNCNvNtNtCs5Xp1JEPGtUd_17fossil_headers_db12repositories12block_header30insert_block_header_only_query0B7_
FN:400,_RNvNtNtNtCs5Xp1JEPGtUd_17fossil_headers_db12repositories12block_header5tests22assert_block_header_eq
FN:428,_RNvNtNtNtCs5Xp1JEPGtUd_17fossil_headers_db12repositories12block_header5tests22assert_transactions_eq
FN:448,_RNvNtNtNtCs5Xp1JEPGtUd_17fossil_headers_db12repositories12block_header5tests22get_fixtures_for_tests
FN:394,_RNvNtNtNtCs5Xp1JEPGtUd_17fossil_headers_db12repositories12block_header5tests22get_test_db_connection
FNDA:0,_RNCNCNvNtNtCscwo6F0TH2eV_17fossil_headers_db12repositories12block_header22insert_block_txs_query00B9_
FNDA:5,_RNCNCNvNtNtCscwo6F0TH2eV_17fossil_headers_db12repositories12block_header25insert_block_header_query00B9_
FNDA:10,_RNCNCNvNtNtCscwo6F0TH2eV_17fossil_headers_db12repositories12block_header30insert_block_header_only_query00B9_
FNDA:0,_RNCNvNtNtCscwo6F0TH2eV_17fossil_headers_db12repositories12block_header22insert_block_txs_query0B7_
FNDA:1,_RNCNvNtNtCscwo6F0TH2eV_17fossil_headers_db12repositories12block_header25insert_block_header_query0B7_
FNDA:0,_RNCNvNtNtCscwo6F0TH2eV_17fossil_headers_db12repositories12block_header30convert_rpc_blockheader_to_dto0B7_
FNDA:0,_RNCNvNtNtCscwo6F0TH2eV_17fossil_headers_db12repositories12block_header30convert_rpc_blockheader_to_dtos0_0B7_
FNDA:0,_RNCNvNtNtCscwo6F0TH2eV_17fossil_headers_db12repositories12block_header30convert_rpc_blockheader_to_dtos_0B7_
FNDA:0,_RNCNvNtNtCscwo6F0TH2eV_17fossil_headers_db12repositories12block_header30convert_rpc_transaction_to_dto0B7_
FNDA:0,_RNCNvNtNtCscwo6F0TH2eV_17fossil_headers_db12repositories12block_header30convert_rpc_transaction_to_dtos0_0B7_
FNDA:0,_RNCNvNtNtCscwo6F0TH2eV_17fossil_headers_db12repositories12block_header30convert_rpc_transaction_to_dtos_0B7_
FNDA:2,_RNCNvNtNtCscwo6F0TH2eV_17fossil_headers_db12repositories12block_header30insert_block_header_only_query0B7_
FNDA:0,_RNvNtNtCscwo6F0TH2eV_17fossil_headers_db12repositories12block_header22insert_block_txs_query
FNDA:1,_RNvNtNtCscwo6F0TH2eV_17fossil_headers_db12repositories12block_header25insert_block_header_query
FNDA:15,_RNvNtNtCscwo6F0TH2eV_17fossil_headers_db12repositories12block_header30convert_rpc_blockheader_to_dto
FNDA:0,_RNvNtNtCscwo6F0TH2eV_17fossil_headers_db12repositories12block_header30convert_rpc_transaction_to_dto
FNDA:2,_RNvNtNtCscwo6F0TH2eV_17fossil_headers_db12repositories12block_header30insert_block_header_only_query
FNDA:12,_RNvNtNtCs5Xp1JEPGtUd_17fossil_headers_db12repositories12block_header22insert_block_txs_query
FNDA:9,_RNvNtNtCs5Xp1JEPGtUd_17fossil_headers_db12repositories12block_header25insert_block_header_query
FNDA:40,_RNvNtNtCs5Xp1JEPGtUd_17fossil_headers_db12repositories12block_header30convert_rpc_blockheader_to_dto
FNDA:672,_RNvNtNtCs5Xp1JEPGtUd_17fossil_headers_db12repositories12block_header30convert_rpc_transaction_to_dto
FNDA:7,_RNvNtNtCs5Xp1JEPGtUd_17fossil_headers_db12repositories12block_header30insert_block_header_only_query
FNDA:12,_RNCNvNtNtNtCs5Xp1JEPGtUd_17fossil_headers_db12repositories12block_header5tests22get_fixtures_for_tests0B9_
FNDA:0,_RNCNvNtNtNtCs5Xp1JEPGtUd_17fossil_headers_db12repositories12block_header5tests22get_test_db_connection0B9_
FNDA:667,_RNCNCNvNtNtCs5Xp1JEPGtUd_17fossil_headers_db12repositories12block_header22insert_block_txs_query00B9_
FNDA:18,_RNCNCNvNtNtCs5Xp1JEPGtUd_17fossil_headers_db12repositories12block_header25insert_block_header_query00B9_
FNDA:12,_RNCNCNvNtNtCs5Xp1JEPGtUd_17fossil_headers_db12repositories12block_header30insert_block_header_only_query00B9_
FNDA:12,_RNCNvNtNtCs5Xp1JEPGtUd_17fossil_headers_db12repositories12block_header22insert_block_txs_query0B7_
FNDA:9,_RNCNvNtNtCs5Xp1JEPGtUd_17fossil_headers_db12repositories12block_header25insert_block_header_query0B7_
FNDA:0,_RNCNvNtNtCs5Xp1JEPGtUd_17fossil_headers_db12repositories12block_header30convert_rpc_blockheader_to_dto0B7_
FNDA:0,_RNCNvNtNtCs5Xp1JEPGtUd_17fossil_headers_db12repositories12block_header30convert_rpc_blockheader_to_dtos0_0B7_
FNDA:0,_RNCNvNtNtCs5Xp1JEPGtUd_17fossil_headers_db12repositories12block_header30convert_rpc_blockheader_to_dtos_0B7_
FNDA:8,_RNCNvNtNtCs5Xp1JEPGtUd_17fossil_headers_db12repositories12block_header30convert_rpc_transaction_to_dto0B7_
FNDA:56,_RNCNvNtNtCs5Xp1JEPGtUd_17fossil_headers_db12repositories12block_header30convert_rpc_transaction_to_dtos0_0B7_
FNDA:56,_RNCNvNtNtCs5Xp1JEPGtUd_17fossil_headers_db12repositories12block_header30convert_rpc_transaction_to_dtos_0B7_
FNDA:7,_RNCNvNtNtCs5Xp1JEPGtUd_17fossil_headers_db12repositories12block_header30insert_block_header_only_query0B7_
FNDA:8,_RNvNtNtNtCs5Xp1JEPGtUd_17fossil_headers_db12repositories12block_header5tests22assert_block_header_eq
FNDA:4,_RNvNtNtNtCs5Xp1JEPGtUd_17fossil_headers_db12repositories12block_header5tests22assert_transactions_eq
FNDA:12,_RNvNtNtNtCs5Xp1JEPGtUd_17fossil_headers_db12repositories12block_header5tests22get_fixtures_for_tests
FNDA:12,_RNvNtNtNtCs5Xp1JEPGtUd_17fossil_headers_db12repositories12block_header5tests22get_test_db_connection
FNF:23
FNH:19
DA:63,55
DA:66,55
DA:67,53
DA:68,53
DA:69,53
DA:70,53
DA:71,0
DA:72,0
DA:75,0
DA:76,53
DA:77,0
DA:78,0
DA:81,0
DA:82,53
DA:83,0
DA:84,0
DA:87,0
DA:89,53
DA:90,53
DA:91,53
DA:92,53
DA:93,53
DA:94,53
DA:95,53
DA:96,53
DA:97,53
DA:98,53
DA:99,53
DA:100,53
DA:101,53
DA:102,53
DA:103,53
DA:104,53
DA:105,53
DA:106,53
DA:107,53
DA:108,53
DA:109,53
DA:110,53
DA:111,53
DA:112,53
DA:113,53
DA:114,53
DA:115,55
DA:117,672
DA:118,672
DA:119,671
DA:122,671
DA:123,671
DA:124,671
DA:125,671
DA:126,671
DA:127,671
DA:128,671
DA:129,671
DA:130,671
DA:131,671
DA:132,671
DA:133,671
DA:134,671
DA:135,671
DA:136,671
DA:137,671
DA:138,671
DA:139,671
DA:140,671
DA:141,671
DA:143,672
DA:147,10
DA:148,10
DA:149,10
DA:150,10
DA:151,10
DA:152,10
DA:154,33
DA:155,24
DA:156,23
DA:160,23
DA:161,23
DA:164,9
DA:175,9
DA:176,9
DA:177,23
DA:179,23
DA:180,23
DA:181,23
DA:182,23
DA:183,23
DA:184,23
DA:185,23
DA:186,23
DA:187,23
DA:188,23
DA:189,23
DA:190,23
DA:191,23
DA:192,23
DA:193,23
DA:194,23
DA:195,23
DA:196,23
DA:197,23
DA:198,23
DA:199,23
DA:200,23
DA:201,23
DA:202,23
DA:205,9
DA:233,9
DA:235,9
DA:236,7
DA:237,2
DA:239,9
DA:240,10
DA:242,12
DA:243,12
DA:244,12
DA:245,12
DA:246,12
DA:255,12
DA:256,679
DA:257,668
DA:258,667
DA:262,11
DA:263,11
DA:264,667
DA:265,667
DA:266,667
DA:267,667
DA:268,667
DA:269,667
DA:270,667
DA:271,667
DA:272,667
DA:273,667
DA:274,667
DA:275,667
DA:276,667
DA:278,11
DA:293,11
DA:295,11
DA:296,12
DA:299,9
DA:300,9
DA:301,9
DA:302,9
DA:303,9
DA:305,31
DA:306,23
DA:307,22
DA:310,8
DA:321,8
DA:322,8
DA:323,22
DA:325,22
DA:326,22
DA:327,22
DA:328,22
DA:329,22
DA:330,22
DA:331,22
DA:332,22
DA:333,22
DA:334,22
DA:335,22
DA:336,22
DA:337,22
DA:338,22
DA:339,22
DA:340,22
DA:341,22
DA:342,22
DA:343,22
DA:344,22
DA:345,22
DA:346,22
DA:347,22
DA:348,22
DA:351,8
DA:379,8
DA:380,8
DA:381,9
DA:394,12
DA:395,12
DA:396,0
DA:397,0
DA:398,12
DA:400,8
DA:401,8
DA:402,8
DA:403,8
DA:404,8
DA:405,8
DA:406,8
DA:407,8
DA:408,8
DA:409,8
DA:410,8
DA:411,8
DA:412,8
DA:413,8
DA:414,8
DA:415,8
DA:416,8
DA:417,8
DA:418,8
DA:419,8
DA:420,8
DA:421,8
DA:422,8
DA:426,8
DA:428,4
DA:429,4
DA:430,4
DA:431,4
DA:435,4
DA:436,4
DA:437,4
DA:438,4
DA:439,4
DA:443,4
DA:444,4
DA:445,4
DA:446,4
DA:448,12
DA:449,12
DA:450,12
DA:451,12
DA:452,12
DA:453,12
DA:454,12
DA:455,12
DA:456,12
DA:458,12
DA:459,12
DA:460,12
DA:461,12
DA:463,12
DA:464,12
DA:465,12
DA:467,12
BRF:0
BRH:0
LF:255
LH:237
end_of_record
SF:/home/ametel/source/fossil-headers-db/src/repositories/index_metadata.rs
FN:69,_RNvNtNtCscwo6F0TH2eV_17fossil_headers_db12repositories14index_metadata18get_index_metadata
FN:101,_RNvNtNtCscwo6F0TH2eV_17fossil_headers_db12repositories14index_metadata18set_is_backfilling
FN:120,_RNvNtNtCscwo6F0TH2eV_17fossil_headers_db12repositories14index_metadata27set_initial_indexing_status
FN:207,_RNvNtNtCscwo6F0TH2eV_17fossil_headers_db12repositories14index_metadata37update_backfilling_block_number_query
FN:188,_RNvNtNtCscwo6F0TH2eV_17fossil_headers_db12repositories14index_metadata44update_latest_quick_index_block_number_query
FN:69,_RNCNvNtNtCscwo6F0TH2eV_17fossil_headers_db12repositories14index_metadata18get_index_metadata0B7_
FN:104,_RNCNvNtNtCscwo6F0TH2eV_17fossil_headers_db12repositories14index_metadata18set_is_backfilling0B7_
FN:210,_RNCNvNtNtCscwo6F0TH2eV_17fossil_headers_db12repositories14index_metadata37update_backfilling_block_number_query0B7_
FN:191,_RNCNvNtNtCscwo6F0TH2eV_17fossil_headers_db12repositories14index_metadata44update_latest_quick_index_block_number_query0B7_
FN:125,_RNCNvNtNtCscwo6F0TH2eV_17fossil_headers_db12repositories14index_metadata27set_initial_indexing_status0B7_
FN:236,_RNCNvNtNtNtCs5Xp1JEPGtUd_17fossil_headers_db12repositories14index_metadata5tests22get_test_db_connection0B9_
FN:235,_RNvNtNtNtCs5Xp1JEPGtUd_17fossil_headers_db12repositories14index_metadata5tests22get_test_db_connection
FN:69,_RNCNvNtNtCs5Xp1JEPGtUd_17fossil_headers_db12repositories14index_metadata18get_index_metadata0B7_
FN:104,_RNCNvNtNtCs5Xp1JEPGtUd_17fossil_headers_db12repositories14index_metadata18set_is_backfilling0B7_
FN:125,_RNCNvNtNtCs5Xp1JEPGtUd_17fossil_headers_db12repositories14index_metadata27set_initial_indexing_status0B7_
FN:210,_RNCNvNtNtCs5Xp1JEPGtUd_17fossil_headers_db12repositories14index_metadata37update_backfilling_block_number_query0B7_
FN:191,_RNCNvNtNtCs5Xp1JEPGtUd_17fossil_headers_db12repositories14index_metadata44update_latest_quick_index_block_number_query0B7_
FN:69,_RNvNtNtCs5Xp1JEPGtUd_17fossil_headers_db12repositories14index_metadata18get_index_metadata
FN:101,_RNvNtNtCs5Xp1JEPGtUd_17fossil_headers_db12repositories14index_metadata18set_is_backfilling
FN:120,_RNvNtNtCs5Xp1JEPGtUd_17fossil_headers_db12repositories14index_metadata27set_initial_indexing_status
FN:207,_RNvNtNtCs5Xp1JEPGtUd_17fossil_headers_db12repositories14index_metadata37update_backfilling_block_number_query
FN:188,_RNvNtNtCs5Xp1JEPGtUd_17fossil_headers_db12repositories14index_metadata44update_latest_quick_index_block_number_query
FN:125,_RNCNvNtNtCscwo6F0TH2eV_17fossil_headers_db12repositories14index_metadata27set_initial_indexing_status0Csh9rWqc8ZKZD_14fossil_indexer
FN:125,_RNCNvNtNtCscwo6F0TH2eV_17fossil_headers_db12repositories14index_metadata27set_initial_indexing_status0CskmtwmJfGVHK_12test_indexer
FNDA:26,_RNvNtNtCscwo6F0TH2eV_17fossil_headers_db12repositories14index_metadata18get_index_metadata
FNDA:3,_RNvNtNtCscwo6F0TH2eV_17fossil_headers_db12repositories14index_metadata18set_is_backfilling
FNDA:3,_RNvNtNtCscwo6F0TH2eV_17fossil_headers_db12repositories14index_metadata27set_initial_indexing_status
FNDA:3,_RNvNtNtCscwo6F0TH2eV_17fossil_headers_db12repositories14index_metadata37update_backfilling_block_number_query
FNDA:0,_RNvNtNtCscwo6F0TH2eV_17fossil_headers_db12repositories14index_metadata44update_latest_quick_index_block_number_query
FNDA:26,_RNCNvNtNtCscwo6F0TH2eV_17fossil_headers_db12repositories14index_metadata18get_index_metadata0B7_
FNDA:3,_RNCNvNtNtCscwo6F0TH2eV_17fossil_headers_db12repositories14index_metadata18set_is_backfilling0B7_
FNDA:3,_RNCNvNtNtCscwo6F0TH2eV_17fossil_headers_db12repositories14index_metadata37update_backfilling_block_number_query0B7_
FNDA:0,_RNCNvNtNtCscwo6F0TH2eV_17fossil_headers_db12repositories14index_metadata44update_latest_quick_index_block_number_query0B7_
FNDA:0,_RNCNvNtNtCscwo6F0TH2eV_17fossil_headers_db12repositories14index_metadata27set_initial_indexing_status0B7_
FNDA:0,_RNCNvNtNtNtCs5Xp1JEPGtUd_17fossil_headers_db12repositories14index_metadata5tests22get_test_db_connection0B9_
FNDA:3,_RNvNtNtNtCs5Xp1JEPGtUd_17fossil_headers_db12repositories14index_metadata5tests22get_test_db_connection
FNDA:23,_RNCNvNtNtCs5Xp1JEPGtUd_17fossil_headers_db12repositories14index_metadata18get_index_metadata0B7_
FNDA:4,_RNCNvNtNtCs5Xp1JEPGtUd_17fossil_headers_db12repositories14index_metadata18set_is_backfilling0B7_
FNDA:9,_RNCNvNtNtCs5Xp1JEPGtUd_17fossil_headers_db12repositories14index_metadata27set_initial_indexing_status0B7_
FNDA:4,_RNCNvNtNtCs5Xp1JEPGtUd_17fossil_headers_db12repositories14index_metadata37update_backfilling_block_number_query0B7_
FNDA:4,_RNCNvNtNtCs5Xp1JEPGtUd_17fossil_headers_db12repositories14index_metadata44update_latest_quick_index_block_number_query0B7_
FNDA:23,_RNvNtNtCs5Xp1JEPGtUd_17fossil_headers_db12repositories14index_metadata18get_index_metadata
FNDA:4,_RNvNtNtCs5Xp1JEPGtUd_17fossil_headers_db12repositories14index_metadata18set_is_backfilling
FNDA:9,_RNvNtNtCs5Xp1JEPGtUd_17fossil_headers_db12repositories14index_metadata27set_initial_indexing_status
FNDA:4,_RNvNtNtCs5Xp1JEPGtUd_17fossil_headers_db12repositories14index_metadata37update_backfilling_block_number_query
FNDA:4,_RNvNtNtCs5Xp1JEPGtUd_17fossil_headers_db12repositories14index_metadata44update_latest_quick_index_block_number_query
FNDA:0,_RNCNvNtNtCscwo6F0TH2eV_17fossil_headers_db12repositories14index_metadata27set_initial_indexing_status0Csh9rWqc8ZKZD_14fossil_indexer
FNDA:3,_RNCNvNtNtCscwo6F0TH2eV_17fossil_headers_db12repositories14index_metadata27set_initial_indexing_status0CskmtwmJfGVHK_12test_indexer
FNF:12
FNH:11
DA:69,49
DA:70,49
DA:71,49
DA:72,49
DA:73,49
DA:74,49
DA:75,49
DA:76,49
DA:77,49
DA:78,49
DA:79,49
DA:80,49
DA:81,49
DA:82,49
DA:83,49
DA:84,49
DA:86,46
DA:87,41
DA:88,5
DA:89,5
DA:90,0
DA:91,0
DA:92,0
DA:97,46
DA:98,46
DA:101,7
DA:102,7
DA:103,7
DA:104,7
DA:105,7
DA:106,7
DA:107,7
DA:108,7
DA:109,7
DA:110,7
DA:111,7
DA:112,7
DA:113,7
DA:114,7
DA:116,7
DA:117,7
DA:120,12
DA:121,12
DA:122,12
DA:123,12
DA:124,12
DA:125,12
DA:127,12
DA:128,12
DA:129,12
DA:130,12
DA:131,12
DA:132,12
DA:133,12
DA:134,12
DA:136,12
DA:137,0
DA:138,0
DA:139,0
DA:140,0
DA:141,0
DA:142,0
DA:143,0
DA:144,0
DA:145,0
DA:146,0
DA:147,0
DA:148,0
DA:149,0
DA:150,0
DA:152,0
DA:153,0
DA:154,0
DA:155,0
DA:157,0
DA:158,12
DA:160,12
DA:161,12
DA:162,12
DA:163,12
DA:164,12
DA:165,12
DA:166,12
DA:167,12
DA:168,12
DA:169,12
DA:170,12
DA:171,12
DA:172,12
DA:173,12
DA:174,12
DA:175,12
DA:176,12
DA:177,12
DA:179,12
DA:180,0
DA:181,0
DA:182,12
DA:184,12
DA:185,12
DA:188,4
DA:189,4
DA:190,4
DA:191,4
DA:192,4
DA:193,4
DA:194,4
DA:195,4
DA:196,4
DA:197,4
DA:198,4
DA:199,4
DA:200,4
DA:201,4
DA:203,4
DA:204,4
DA:207,7
DA:208,7
DA:209,7
DA:210,7
DA:211,7
DA:212,7
DA:213,7
DA:214,7
DA:215,7
DA:216,7
DA:217,7
DA:218,7
DA:219,7
DA:220,7
DA:222,7
DA:223,7
DA:235,3
DA:236,3
DA:237,0
DA:238,0
DA:239,3
BRF:0
BRH:0
LF:143
LH:116
end_of_record
SF:/home/ametel/source/fossil-headers-db/src/router/mod.rs
FN:59,_RNCNCNCNvNtCscwo6F0TH2eV_17fossil_headers_db6router17initialize_router000B9_
FN:66,_RNCNCNvNtCscwo6F0TH2eV_17fossil_headers_db6router17initialize_router00B7_
FN:80,_RNCNCNvNtCscwo6F0TH2eV_17fossil_headers_db6router17initialize_router0s1_0B7_
FN:80,_RNCNCNvNtCscwo6F0TH2eV_17fossil_headers_db6router17initialize_router0s2_0B7_
FN:72,_RNCNCNvNtCscwo6F0TH2eV_17fossil_headers_db6router17initialize_router0s_0B7_
FN:89,_RNCNvNtCscwo6F0TH2eV_17fossil_headers_db6router15shutdown_signal0B5_
FN:56,_RNCNvNtCscwo6F0TH2eV_17fossil_headers_db6router17initialize_router0B5_
FN:89,_RNvNtCscwo6F0TH2eV_17fossil_headers_db6router15shutdown_signal
FN:56,_RNvNtCscwo6F0TH2eV_17fossil_headers_db6router17initialize_router
FN:59,_RNCNCNCNvNtCs5Xp1JEPGtUd_17fossil_headers_db6router17initialize_router000B9_
FN:66,_RNCNCNvNtCs5Xp1JEPGtUd_17fossil_headers_db6router17initialize_router00B7_
FN:80,_RNCNCNvNtCs5Xp1JEPGtUd_17fossil_headers_db6router17initialize_router0s1_0B7_
FN:80,_RNCNCNvNtCs5Xp1JEPGtUd_17fossil_headers_db6router17initialize_router0s2_0B7_
FN:72,_RNCNCNvNtCs5Xp1JEPGtUd_17fossil_headers_db6router17initialize_router0s_0B7_
FN:89,_RNCNvNtCs5Xp1JEPGtUd_17fossil_headers_db6router15shutdown_signal0B5_
FN:56,_RNCNvNtCs5Xp1JEPGtUd_17fossil_headers_db6router17initialize_router0B5_
FN:89,_RNvNtCs5Xp1JEPGtUd_17fossil_headers_db6router15shutdown_signal
FN:56,_RNvNtCs5Xp1JEPGtUd_17fossil_headers_db6router17initialize_router
FNDA:0,_RNCNCNCNvNtCscwo6F0TH2eV_17fossil_headers_db6router17initialize_router000B9_
FNDA:0,_RNCNCNvNtCscwo6F0TH2eV_17fossil_headers_db6router17initialize_router00B7_
FNDA:0,_RNCNCNvNtCscwo6F0TH2eV_17fossil_headers_db6router17initialize_router0s1_0B7_
FNDA:0,_RNCNCNvNtCscwo6F0TH2eV_17fossil_headers_db6router17initialize_router0s2_0B7_
FNDA:0,_RNCNCNvNtCscwo6F0TH2eV_17fossil_headers_db6router17initialize_router0s_0B7_
FNDA:0,_RNCNvNtCscwo6F0TH2eV_17fossil_headers_db6router15shutdown_signal0B5_
FNDA:3,_RNCNvNtCscwo6F0TH2eV_17fossil_headers_db6router17initialize_router0B5_
FNDA:0,_RNvNtCscwo6F0TH2eV_17fossil_headers_db6router15shutdown_signal
FNDA:3,_RNvNtCscwo6F0TH2eV_17fossil_headers_db6router17initialize_router
FNDA:0,_RNCNCNCNvNtCs5Xp1JEPGtUd_17fossil_headers_db6router17initialize_router000B9_
FNDA:0,_RNCNCNvNtCs5Xp1JEPGtUd_17fossil_headers_db6router17initialize_router00B7_
FNDA:0,_RNCNCNvNtCs5Xp1JEPGtUd_17fossil_headers_db6router17initialize_router0s1_0B7_
FNDA:0,_RNCNCNvNtCs5Xp1JEPGtUd_17fossil_headers_db6router17initialize_router0s2_0B7_
FNDA:0,_RNCNCNvNtCs5Xp1JEPGtUd_17fossil_headers_db6router17initialize_router0s_0B7_
FNDA:0,_RNCNvNtCs5Xp1JEPGtUd_17fossil_headers_db6router15shutdown_signal0B5_
FNDA:0,_RNCNvNtCs5Xp1JEPGtUd_17fossil_headers_db6router17initialize_router0B5_
FNDA:0,_RNvNtCs5Xp1JEPGtUd_17fossil_headers_db6router15shutdown_signal
FNDA:0,_RNvNtCs5Xp1JEPGtUd_17fossil_headers_db6router17initialize_router
FNF:8
FNH:2
DA:56,3
DA:57,3
DA:58,3
DA:59,3
DA:61,0
DA:62,0
DA:63,0
DA:64,0
DA:65,0
DA:66,0
DA:70,3
DA:71,3
DA:72,3
DA:74,3
DA:76,0
DA:77,0
DA:78,0
DA:79,0
DA:80,0
DA:82,0
DA:83,0
DA:84,0
DA:86,0
DA:87,3
DA:89,0
DA:90,0
DA:91,0
DA:93,0
DA:94,0
BRF:0
BRH:0
LF:35
LH:10
end_of_record
SF:/home/ametel/source/fossil-headers-db/src/rpc/mod.rs
FN:393,_RINvNtCscwo6F0TH2eV_17fossil_headers_db3rpc13make_rpc_callINtB2_10RpcRequestTNtNtCs8Ty2CzGA6U3_5alloc6string6StringbEENtB2_30BlockHeaderWithFullTransactionECsaImZPb8KXhW_17fossil_headers_db
FN:393,_RINvNtCscwo6F0TH2eV_17fossil_headers_db3rpc13make_rpc_callINtB2_10RpcRequestTRebEENtB2_31BlockHeaderWithEmptyTransactionECsaImZPb8KXhW_17fossil_headers_db
FN:348,_RINvNtCscwo6F0TH2eV_17fossil_headers_db3rpc17send_http_requestINtB2_10RpcRequestTNtNtCs8Ty2CzGA6U3_5alloc6string6StringbEEECsaImZPb8KXhW_17fossil_headers_db
FN:348,_RINvNtCscwo6F0TH2eV_17fossil_headers_db3rpc17send_http_requestINtB2_10RpcRequestTRebEEECsaImZPb8KXhW_17fossil_headers_db
FN:374,_RINvNtCscwo6F0TH2eV_17fossil_headers_db3rpc18parse_rpc_responseNtB2_30BlockHeaderWithFullTransactionECsaImZPb8KXhW_17fossil_headers_db
FN:374,_RINvNtCscwo6F0TH2eV_17fossil_headers_db3rpc18parse_rpc_responseNtB2_31BlockHeaderWithEmptyTransactionECsaImZPb8KXhW_17fossil_headers_db
FN:402,_RINvNtCscwo6F0TH2eV_17fossil_headers_db3rpc22make_retrying_rpc_callINtB2_10RpcRequestTNtNtCs8Ty2CzGA6U3_5alloc6string6StringbEENtB2_30BlockHeaderWithFullTransactionECsaImZPb8KXhW_17fossil_headers_db
FN:402,_RINvNtCscwo6F0TH2eV_17fossil_headers_db3rpc22make_retrying_rpc_callINtB2_10RpcRequestTRebEENtB2_31BlockHeaderWithEmptyTransactionECsaImZPb8KXhW_17fossil_headers_db
FN:396,_RNCINvNtCscwo6F0TH2eV_17fossil_headers_db3rpc13make_rpc_callINtB4_10RpcRequestTNtNtCs8Ty2CzGA6U3_5alloc6string6StringbEENtB4_30BlockHeaderWithFullTransactionE0CsaImZPb8KXhW_17fossil_headers_db
FN:396,_RNCINvNtCscwo6F0TH2eV_17fossil_headers_db3rpc13make_rpc_callINtB4_10RpcRequestTRebEENtB4_31BlockHeaderWithEmptyTransactionE0CsaImZPb8KXhW_17fossil_headers_db
FN:352,_RNCINvNtCscwo6F0TH2eV_17fossil_headers_db3rpc17send_http_requestINtB4_10RpcRequestTNtNtCs8Ty2CzGA6U3_5alloc6string6StringbEEE0CsaImZPb8KXhW_17fossil_headers_db
FN:352,_RNCINvNtCscwo6F0TH2eV_17fossil_headers_db3rpc17send_http_requestINtB4_10RpcRequestTRebEEE0CsaImZPb8KXhW_17fossil_headers_db
FN:376,_RNCINvNtCscwo6F0TH2eV_17fossil_headers_db3rpc18parse_rpc_responseNtB4_30BlockHeaderWithFullTransactionE0CsaImZPb8KXhW_17fossil_headers_db
FN:376,_RNCINvNtCscwo6F0TH2eV_17fossil_headers_db3rpc18parse_rpc_responseNtB4_31BlockHeaderWithEmptyTransactionE0CsaImZPb8KXhW_17fossil_headers_db
FN:406,_RNCINvNtCscwo6F0TH2eV_17fossil_headers_db3rpc22make_retrying_rpc_callINtB4_10RpcRequestTNtNtCs8Ty2CzGA6U3_5alloc6string6StringbEENtB4_30BlockHeaderWithFullTransactionE0CsaImZPb8KXhW_17fossil_headers_db
FN:406,_RNCINvNtCscwo6F0TH2eV_17fossil_headers_db3rpc22make_retrying_rpc_callINtB4_10RpcRequestTRebEENtB4_31BlockHeaderWithEmptyTransactionE0CsaImZPb8KXhW_17fossil_headers_db
FN:368,_RNCNCINvNtCscwo6F0TH2eV_17fossil_headers_db3rpc17send_http_requestINtB6_10RpcRequestTNtNtCs8Ty2CzGA6U3_5alloc6string6StringbEEE00CsaImZPb8KXhW_17fossil_headers_db
FN:368,_RNCNCINvNtCscwo6F0TH2eV_17fossil_headers_db3rpc17send_http_requestINtB6_10RpcRequestTRebEEE00CsaImZPb8KXhW_17fossil_headers_db
FN:377,_RNCNCINvNtCscwo6F0TH2eV_17fossil_headers_db3rpc18parse_rpc_responseNtB6_30BlockHeaderWithFullTransactionE00CsaImZPb8KXhW_17fossil_headers_db
FN:384,_RNCNCINvNtCscwo6F0TH2eV_17fossil_headers_db3rpc18parse_rpc_responseNtB6_30BlockHeaderWithFullTransactionE0s0_0CsaImZPb8KXhW_17fossil_headers_db
FN:377,_RNCNCINvNtCscwo6F0TH2eV_17fossil_headers_db3rpc18parse_rpc_responseNtB6_31BlockHeaderWithEmptyTransactionE00CsaImZPb8KXhW_17fossil_headers_db
FN:384,_RNCNCINvNtCscwo6F0TH2eV_17fossil_headers_db3rpc18parse_rpc_responseNtB6_31BlockHeaderWithEmptyTransactionE0s0_0CsaImZPb8KXhW_17fossil_headers_db
FN:248,_RNCNCNvNtCscwo6F0TH2eV_17fossil_headers_db3rpc32get_latest_finalized_blocknumber00CsaImZPb8KXhW_17fossil_headers_db
FN:299,_RNCNvNtCscwo6F0TH2eV_17fossil_headers_db3rpc24get_full_block_by_number0CsaImZPb8KXhW_17fossil_headers_db
FN:233,_RNCNvNtCscwo6F0TH2eV_17fossil_headers_db3rpc32get_latest_finalized_blocknumber0CsaImZPb8KXhW_17fossil_headers_db
FN:518,_RNvMs_NtCscwo6F0TH2eV_17fossil_headers_db3rpcNtB4_21EthereumJsonRpcClient3new
FN:334,_RNvNtCscwo6F0TH2eV_17fossil_headers_db3rpc21get_connection_string
FN:296,_RNvNtCscwo6F0TH2eV_17fossil_headers_db3rpc24get_full_block_by_number
FN:657,_RNvNtCscwo6F0TH2eV_17fossil_headers_db3rpc26try_convert_full_tx_vector
FN:317,_RNvNtCscwo6F0TH2eV_17fossil_headers_db3rpc30batch_get_full_block_by_number
FN:233,_RNvNtCscwo6F0TH2eV_17fossil_headers_db3rpc32get_latest_finalized_blocknumber
FN:437,_RNvXNtCscwo6F0TH2eV_17fossil_headers_db3rpcNtB2_11TransactionINtNtCs66KPHxksi63_4core7convert7TryFromNtB2_16BlockTransactionE8try_from
FN:638,_RNvXs1_NtCscwo6F0TH2eV_17fossil_headers_db3rpcNtB5_21EthereumJsonRpcClientNtB5_19EthereumRpcProvider24get_full_block_by_number
FN:619,_RNvXs1_NtCscwo6F0TH2eV_17fossil_headers_db3rpcNtB5_21EthereumJsonRpcClientNtB5_19EthereumRpcProvider32get_latest_finalized_blocknumber
FN:579,_RINvMs0_NtCscwo6F0TH2eV_17fossil_headers_db3rpcNtB6_21EthereumJsonRpcClient13make_rpc_callRINtB6_10RpcRequestTNtNtCs8Ty2CzGA6U3_5alloc6string6StringbEENtB6_11BlockHeaderEB8_
FN:579,_RINvMs0_NtCscwo6F0TH2eV_17fossil_headers_db3rpcNtB6_21EthereumJsonRpcClient13make_rpc_callRINtB6_10RpcRequestTRebEENtB6_11BlockHeaderEB8_
FN:559,_RINvMs0_NtCscwo6F0TH2eV_17fossil_headers_db3rpcNtB6_21EthereumJsonRpcClient14parse_responseNtB6_11BlockHeaderEB8_
FN:528,_RINvMs0_NtCscwo6F0TH2eV_17fossil_headers_db3rpcNtB6_21EthereumJsonRpcClient17send_http_requestRINtB6_10RpcRequestTNtNtCs8Ty2CzGA6U3_5alloc6string6StringbEEEB8_
FN:528,_RINvMs0_NtCscwo6F0TH2eV_17fossil_headers_db3rpcNtB6_21EthereumJsonRpcClient17send_http_requestRINtB6_10RpcRequestTRebEEEB8_
FN:588,_RINvMs0_NtCscwo6F0TH2eV_17fossil_headers_db3rpcNtB6_21EthereumJsonRpcClient22make_retrying_rpc_callRINtB6_10RpcRequestTNtNtCs8Ty2CzGA6U3_5alloc6string6StringbEENtB6_11BlockHeaderEB8_
FN:588,_RINvMs0_NtCscwo6F0TH2eV_17fossil_headers_db3rpcNtB6_21EthereumJsonRpcClient22make_retrying_rpc_callRINtB6_10RpcRequestTRebEENtB6_11BlockHeaderEB8_
FN:583,_RNCINvMs0_NtCscwo6F0TH2eV_17fossil_headers_db3rpcNtB8_21EthereumJsonRpcClient13make_rpc_callRINtB8_10RpcRequestTNtNtCs8Ty2CzGA6U3_5alloc6string6StringbEENtB8_11BlockHeaderE0Ba_
FN:583,_RNCINvMs0_NtCscwo6F0TH2eV_17fossil_headers_db3rpcNtB8_21EthereumJsonRpcClient13make_rpc_callRINtB8_10RpcRequestTRebEENtB8_11BlockHeaderE0Ba_
FN:562,_RNCINvMs0_NtCscwo6F0TH2eV_17fossil_headers_db3rpcNtB8_21EthereumJsonRpcClient14parse_responseNtB8_11BlockHeaderE0Ba_
FN:532,_RNCINvMs0_NtCscwo6F0TH2eV_17fossil_headers_db3rpcNtB8_21EthereumJsonRpcClient17send_http_requestRINtB8_10RpcRequestTNtNtCs8Ty2CzGA6U3_5alloc6string6StringbEEE0Ba_
FN:532,_RNCINvMs0_NtCscwo6F0TH2eV_17fossil_headers_db3rpcNtB8_21EthereumJsonRpcClient17send_http_requestRINtB8_10RpcRequestTRebEEE0Ba_
FN:595,_RNCINvMs0_NtCscwo6F0TH2eV_17fossil_headers_db3rpcNtB8_21EthereumJsonRpcClient22make_retrying_rpc_callRINtB8_10RpcRequestTNtNtCs8Ty2CzGA6U3_5alloc6string6StringbEENtB8_11BlockHeaderE0Ba_
FN:595,_RNCINvMs0_NtCscwo6F0TH2eV_17fossil_headers_db3rpcNtB8_21EthereumJsonRpcClient22make_retrying_rpc_callRINtB8_10RpcRequestTRebEENtB8_11BlockHeaderE0Ba_
FN:563,_RNCNCINvMs0_NtCscwo6F0TH2eV_17fossil_headers_db3rpcNtBa_21EthereumJsonRpcClient14parse_responseNtBa_11BlockHeaderE00Bc_
FN:570,_RNCNCINvMs0_NtCscwo6F0TH2eV_17fossil_headers_db3rpcNtBa_21EthereumJsonRpcClient14parse_responseNtBa_11BlockHeaderE0s0_0Bc_
FN:553,_RNCNCINvMs0_NtCscwo6F0TH2eV_17fossil_headers_db3rpcNtBa_21EthereumJsonRpcClient17send_http_requestRINtBa_10RpcRequestTNtNtCs8Ty2CzGA6U3_5alloc6string6StringbEEE00Bc_
FN:553,_RNCNCINvMs0_NtCscwo6F0TH2eV_17fossil_headers_db3rpcNtBa_21EthereumJsonRpcClient17send_http_requestRINtBa_10RpcRequestTRebEEE00Bc_
FN:338,_RNCNCNvNtCscwo6F0TH2eV_17fossil_headers_db3rpc21get_connection_string00B7_
FN:630,_RNCNCNvXs1_NtCscwo6F0TH2eV_17fossil_headers_db3rpcNtB9_21EthereumJsonRpcClientNtB9_19EthereumRpcProvider32get_latest_finalized_blocknumber00Bb_
FN:336,_RNCNvNtCscwo6F0TH2eV_17fossil_headers_db3rpc21get_connection_string0B5_
FN:342,_RNCNvNtCscwo6F0TH2eV_17fossil_headers_db3rpc21get_connection_strings_0B5_
FN:643,_RNCNvXs1_NtCscwo6F0TH2eV_17fossil_headers_db3rpcNtB7_21EthereumJsonRpcClientNtB7_19EthereumRpcProvider24get_full_block_by_number0B9_
FN:619,_RNCNvXs1_NtCscwo6F0TH2eV_17fossil_headers_db3rpcNtB7_21EthereumJsonRpcClientNtB7_19EthereumRpcProvider32get_latest_finalized_blocknumber0B9_
FN:393,_RINvNtCscwo6F0TH2eV_17fossil_headers_db3rpc13make_rpc_callppEB4_
FN:348,_RINvNtCscwo6F0TH2eV_17fossil_headers_db3rpc17send_http_requestpEB4_
FN:374,_RINvNtCscwo6F0TH2eV_17fossil_headers_db3rpc18parse_rpc_responsepEB4_
FN:402,_RINvNtCscwo6F0TH2eV_17fossil_headers_db3rpc22make_retrying_rpc_callppEB4_
FN:396,_RNCINvNtCscwo6F0TH2eV_17fossil_headers_db3rpc13make_rpc_callppE0B6_
FN:352,_RNCINvNtCscwo6F0TH2eV_17fossil_headers_db3rpc17send_http_requestpE0B6_
FN:376,_RNCINvNtCscwo6F0TH2eV_17fossil_headers_db3rpc18parse_rpc_responsepE0B6_
FN:406,_RNCINvNtCscwo6F0TH2eV_17fossil_headers_db3rpc22make_retrying_rpc_callppE0B6_
FN:368,_RNCNCINvNtCscwo6F0TH2eV_17fossil_headers_db3rpc17send_http_requestpE00B8_
FN:377,_RNCNCINvNtCscwo6F0TH2eV_17fossil_headers_db3rpc18parse_rpc_responsepE00B8_
FN:384,_RNCNCINvNtCscwo6F0TH2eV_17fossil_headers_db3rpc18parse_rpc_responsepE0s0_0B8_
FN:248,_RNCNCNvNtCscwo6F0TH2eV_17fossil_headers_db3rpc32get_latest_finalized_blocknumber00B7_
FN:299,_RNCNvNtCscwo6F0TH2eV_17fossil_headers_db3rpc24get_full_block_by_number0B5_
FN:320,_RNCNvNtCscwo6F0TH2eV_17fossil_headers_db3rpc30batch_get_full_block_by_number0B5_
FN:233,_RNCNvNtCscwo6F0TH2eV_17fossil_headers_db3rpc32get_latest_finalized_blocknumber0B5_
FN:518,_RNvMs_NtCs5Xp1JEPGtUd_17fossil_headers_db3rpcNtB4_21EthereumJsonRpcClient3new
FN:657,_RNvNtCs5Xp1JEPGtUd_17fossil_headers_db3rpc26try_convert_full_tx_vector
FN:437,_RNvXNtCs5Xp1JEPGtUd_17fossil_headers_db3rpcNtB2_11TransactionINtNtCs66KPHxksi63_4core7convert7TryFromNtB2_16BlockTransactionE8try_from
FN:638,_RNvXs1_NtCs5Xp1JEPGtUd_17fossil_headers_db3rpcNtB5_21EthereumJsonRpcClientNtB5_19EthereumRpcProvider24get_full_block_by_number
FN:619,_RNvXs1_NtCs5Xp1JEPGtUd_17fossil_headers_db3rpcNtB5_21EthereumJsonRpcClientNtB5_19EthereumRpcProvider32get_latest_finalized_blocknumber
FN:393,_RINvNtCs5Xp1JEPGtUd_17fossil_headers_db3rpc13make_rpc_callppEB4_
FN:348,_RINvNtCs5Xp1JEPGtUd_17fossil_headers_db3rpc17send_http_requestpEB4_
FN:374,_RINvNtCs5Xp1JEPGtUd_17fossil_headers_db3rpc18parse_rpc_responsepEB4_
FN:402,_RINvNtCs5Xp1JEPGtUd_17fossil_headers_db3rpc22make_retrying_rpc_callppEB4_
FN:396,_RNCINvNtCs5Xp1JEPGtUd_17fossil_headers_db3rpc13make_rpc_callppE0B6_
FN:352,_RNCINvNtCs5Xp1JEPGtUd_17fossil_headers_db3rpc17send_http_requestpE0B6_
FN:376,_RNCINvNtCs5Xp1JEPGtUd_17fossil_headers_db3rpc18parse_rpc_responsepE0B6_
FN:406,_RNCINvNtCs5Xp1JEPGtUd_17fossil_headers_db3rpc22make_retrying_rpc_callppE0B6_
FN:368,_RNCNCINvNtCs5Xp1JEPGtUd_17fossil_headers_db3rpc17send_http_requestpE00B8_
FN:377,_RNCNCINvNtCs5Xp1JEPGtUd_17fossil_headers_db3rpc18parse_rpc_responsepE00B8_
FN:384,_RNCNCINvNtCs5Xp1JEPGtUd_17fossil_headers_db3rpc18parse_rpc_responsepE0s0_0B8_
FN:338,_RNCNCNvNtCs5Xp1JEPGtUd_17fossil_headers_db3rpc21get_connection_string00B7_
FN:248,_RNCNCNvNtCs5Xp1JEPGtUd_17fossil_headers_db3rpc32get_latest_finalized_blocknumber00B7_
FN:336,_RNCNvNtCs5Xp1JEPGtUd_17fossil_headers_db3rpc21get_connection_string0B5_
FN:342,_RNCNvNtCs5Xp1JEPGtUd_17fossil_headers_db3rpc21get_connection_strings_0B5_
FN:299,_RNCNvNtCs5Xp1JEPGtUd_17fossil_headers_db3rpc24get_full_block_by_number0B5_
FN:320,_RNCNvNtCs5Xp1JEPGtUd_17fossil_headers_db3rpc30batch_get_full_block_by_number0B5_
FN:233,_RNCNvNtCs5Xp1JEPGtUd_17fossil_headers_db3rpc32get_latest_finalized_blocknumber0B5_
FN:334,_RNvNtCs5Xp1JEPGtUd_17fossil_headers_db3rpc21get_connection_string
FN:296,_RNvNtCs5Xp1JEPGtUd_17fossil_headers_db3rpc24get_full_block_by_number
FN:317,_RNvNtCs5Xp1JEPGtUd_17fossil_headers_db3rpc30batch_get_full_block_by_number
FN:233,_RNvNtCs5Xp1JEPGtUd_17fossil_headers_db3rpc32get_latest_finalized_blocknumber
FN:699,_RNvNtNtCs5Xp1JEPGtUd_17fossil_headers_db3rpc17integration_tests21start_mock_rpc_server
FN:685,_RNvNtNtCs5Xp1JEPGtUd_17fossil_headers_db3rpc17integration_tests22get_fixtures_for_tests
FN:794,_RNvNtNtCs5Xp1JEPGtUd_17fossil_headers_db3rpc17integration_testss_25test_try_from_for_full_tx
FN:826,_RNvNtNtCs5Xp1JEPGtUd_17fossil_headers_db3rpc17integration_testss_25test_try_into_for_full_tx
FN:859,_RNvNtNtCs5Xp1JEPGtUd_17fossil_headers_db3rpc17integration_testss_31test_try_convert_full_tx_vector
FN:876,_RNvNtNtCs5Xp1JEPGtUd_17fossil_headers_db3rpc17integration_testss_55test_try_convert_full_tx_vector_should_fail_for_hash_tx
FN:882,_RNvNtNtCs5Xp1JEPGtUd_17fossil_headers_db3rpc17integration_testss_68test_try_convert_full_tx_vector_should_be_empty_when_empty_vec_given
FN:720,_RNCNCNCNvNtNtCs5Xp1JEPGtUd_17fossil_headers_db3rpc17integration_tests21start_mock_rpc_server000Bb_
FN:751,_RNCNCNCNvNtNtCs5Xp1JEPGtUd_17fossil_headers_db3rpc17integration_tests21start_mock_rpc_server00s0_0Bb_
FN:725,_RNCNCNCNvNtNtCs5Xp1JEPGtUd_17fossil_headers_db3rpc17integration_tests21start_mock_rpc_server00s_0Bb_
FN:708,_RNCNCNvNtNtCs5Xp1JEPGtUd_17fossil_headers_db3rpc17integration_tests21start_mock_rpc_server00B9_
FN:975,_RNCNCNvNtNtCs5Xp1JEPGtUd_17fossil_headers_db3rpc17integration_testss_37test_get_full_block_by_number_with_tx00B9_
FN:1010,_RNCNCNvNtNtCs5Xp1JEPGtUd_17fossil_headers_db3rpc17integration_testss_37test_get_latest_finalized_blocknumber00B9_
FN:948,_RNCNCNvNtNtCs5Xp1JEPGtUd_17fossil_headers_db3rpc17integration_testss_40test_get_full_block_by_number_without_tx00B9_
FN:890,_RNCNCNvNtNtCs5Xp1JEPGtUd_17fossil_headers_db3rpc17integration_testss_48test_max_retries_should_affect_number_of_retries00B9_
FN:909,_RNCNCNvNtNtCs5Xp1JEPGtUd_17fossil_headers_db3rpc17integration_testss_54test_get_full_block_by_number_should_retry_when_failed00B9_
FN:927,_RNCNCNvNtNtCs5Xp1JEPGtUd_17fossil_headers_db3rpc17integration_testss_62test_get_latest_finalized_blocknumber_should_retry_when_failed00B9_
FN:702,_RNCNvNtNtCs5Xp1JEPGtUd_17fossil_headers_db3rpc17integration_tests21start_mock_rpc_server0B7_
FN:685,_RNCNvNtNtCs5Xp1JEPGtUd_17fossil_headers_db3rpc17integration_tests22get_fixtures_for_tests0B7_
FN:794,_RNCNvNtNtCs5Xp1JEPGtUd_17fossil_headers_db3rpc17integration_testss_25test_try_from_for_full_tx0B7_
FN:826,_RNCNvNtNtCs5Xp1JEPGtUd_17fossil_headers_db3rpc17integration_testss_25test_try_into_for_full_tx0B7_
FN:859,_RNCNvNtNtCs5Xp1JEPGtUd_17fossil_headers_db3rpc17integration_testss_31test_try_convert_full_tx_vector0B7_
FN:975,_RNCNvNtNtCs5Xp1JEPGtUd_17fossil_headers_db3rpc17integration_testss_37test_get_full_block_by_number_with_tx0B7_
FN:1010,_RNCNvNtNtCs5Xp1JEPGtUd_17fossil_headers_db3rpc17integration_testss_37test_get_latest_finalized_blocknumber0B7_
FN:948,_RNCNvNtNtCs5Xp1JEPGtUd_17fossil_headers_db3rpc17integration_testss_40test_get_full_block_by_number_without_tx0B7_
FN:890,_RNCNvNtNtCs5Xp1JEPGtUd_17fossil_headers_db3rpc17integration_testss_48test_max_retries_should_affect_number_of_retries0B7_
FN:909,_RNCNvNtNtCs5Xp1JEPGtUd_17fossil_headers_db3rpc17integration_testss_54test_get_full_block_by_number_should_retry_when_failed0B7_
FN:876,_RNCNvNtNtCs5Xp1JEPGtUd_17fossil_headers_db3rpc17integration_testss_55test_try_convert_full_tx_vector_should_fail_for_hash_tx0B7_
FN:927,_RNCNvNtNtCs5Xp1JEPGtUd_17fossil_headers_db3rpc17integration_testss_62test_get_latest_finalized_blocknumber_should_retry_when_failed0B7_
FN:882,_RNCNvNtNtCs5Xp1JEPGtUd_17fossil_headers_db3rpc17integration_testss_68test_try_convert_full_tx_vector_should_be_empty_when_empty_vec_given0B7_
FN:579,_RINvMs0_NtCs5Xp1JEPGtUd_17fossil_headers_db3rpcNtB6_21EthereumJsonRpcClient13make_rpc_callRINtB6_10RpcRequestTNtNtCs8Ty2CzGA6U3_5alloc6string6StringbEENtB6_11BlockHeaderEB8_
FN:579,_RINvMs0_NtCs5Xp1JEPGtUd_17fossil_headers_db3rpcNtB6_21EthereumJsonRpcClient13make_rpc_callRINtB6_10RpcRequestTRebEENtB6_11BlockHeaderEB8_
FN:559,_RINvMs0_NtCs5Xp1JEPGtUd_17fossil_headers_db3rpcNtB6_21EthereumJsonRpcClient14parse_responseNtB6_11BlockHeaderEB8_
FN:528,_RINvMs0_NtCs5Xp1JEPGtUd_17fossil_headers_db3rpcNtB6_21EthereumJsonRpcClient17send_http_requestRINtB6_10RpcRequestTNtNtCs8Ty2CzGA6U3_5alloc6string6StringbEEEB8_
FN:528,_RINvMs0_NtCs5Xp1JEPGtUd_17fossil_headers_db3rpcNtB6_21EthereumJsonRpcClient17send_http_requestRINtB6_10RpcRequestTRebEEEB8_
FN:588,_RINvMs0_NtCs5Xp1JEPGtUd_17fossil_headers_db3rpcNtB6_21EthereumJsonRpcClient22make_retrying_rpc_callRINtB6_10RpcRequestTNtNtCs8Ty2CzGA6U3_5alloc6string6StringbEENtB6_11BlockHeaderEB8_
FN:588,_RINvMs0_NtCs5Xp1JEPGtUd_17fossil_headers_db3rpcNtB6_21EthereumJsonRpcClient22make_retrying_rpc_callRINtB6_10RpcRequestTRebEENtB6_11BlockHeaderEB8_
FN:583,_RNCINvMs0_NtCs5Xp1JEPGtUd_17fossil_headers_db3rpcNtB8_21EthereumJsonRpcClient13make_rpc_callRINtB8_10RpcRequestTNtNtCs8Ty2CzGA6U3_5alloc6string6StringbEENtB8_11BlockHeaderE0Ba_
FN:583,_RNCINvMs0_NtCs5Xp1JEPGtUd_17fossil_headers_db3rpcNtB8_21EthereumJsonRpcClient13make_rpc_callRINtB8_10RpcRequestTRebEENtB8_11BlockHeaderE0Ba_
FN:562,_RNCINvMs0_NtCs5Xp1JEPGtUd_17fossil_headers_db3rpcNtB8_21EthereumJsonRpcClient14parse_responseNtB8_11BlockHeaderE0Ba_
FN:532,_RNCINvMs0_NtCs5Xp1JEPGtUd_17fossil_headers_db3rpcNtB8_21EthereumJsonRpcClient17send_http_requestRINtB8_10RpcRequestTNtNtCs8Ty2CzGA6U3_5alloc6string6StringbEEE0Ba_
FN:532,_RNCINvMs0_NtCs5Xp1JEPGtUd_17fossil_headers_db3rpcNtB8_21EthereumJsonRpcClient17send_http_requestRINtB8_10RpcRequestTRebEEE0Ba_
FN:595,_RNCINvMs0_NtCs5Xp1JEPGtUd_17fossil_headers_db3rpcNtB8_21EthereumJsonRpcClient22make_retrying_rpc_callRINtB8_10RpcRequestTNtNtCs8Ty2CzGA6U3_5alloc6string6StringbEENtB8_11BlockHeaderE0Ba_
FN:595,_RNCINvMs0_NtCs5Xp1JEPGtUd_17fossil_headers_db3rpcNtB8_21EthereumJsonRpcClient22make_retrying_rpc_callRINtB8_10RpcRequestTRebEENtB8_11BlockHeaderE0Ba_
FN:563,_RNCNCINvMs0_NtCs5Xp1JEPGtUd_17fossil_headers_db3rpcNtBa_21EthereumJsonRpcClient14parse_responseNtBa_11BlockHeaderE00Bc_
FN:570,_RNCNCINvMs0_NtCs5Xp1JEPGtUd_17fossil_headers_db3rpcNtBa_21EthereumJsonRpcClient14parse_responseNtBa_11BlockHeaderE0s0_0Bc_
FN:553,_RNCNCINvMs0_NtCs5Xp1JEPGtUd_17fossil_headers_db3rpcNtBa_21EthereumJsonRpcClient17send_http_requestRINtBa_10RpcRequestTNtNtCs8Ty2CzGA6U3_5alloc6string6StringbEEE00Bc_
FN:553,_RNCNCINvMs0_NtCs5Xp1JEPGtUd_17fossil_headers_db3rpcNtBa_21EthereumJsonRpcClient17send_http_requestRINtBa_10RpcRequestTRebEEE00Bc_
FN:630,_RNCNCNvXs1_NtCs5Xp1JEPGtUd_17fossil_headers_db3rpcNtB9_21EthereumJsonRpcClientNtB9_19EthereumRpcProvider32get_latest_finalized_blocknumber00Bb_
FN:643,_RNCNvXs1_NtCs5Xp1JEPGtUd_17fossil_headers_db3rpcNtB7_21EthereumJsonRpcClientNtB7_19EthereumRpcProvider24get_full_block_by_number0B9_
FN:619,_RNCNvXs1_NtCs5Xp1JEPGtUd_17fossil_headers_db3rpcNtB7_21EthereumJsonRpcClientNtB7_19EthereumRpcProvider32get_latest_finalized_blocknumber0B9_
FNDA:0,_RINvNtCscwo6F0TH2eV_17fossil_headers_db3rpc13make_rpc_callINtB2_10RpcRequestTNtNtCs8Ty2CzGA6U3_5alloc6string6StringbEENtB2_30BlockHeaderWithFullTransactionECsaImZPb8KXhW_17fossil_headers_db
FNDA:0,_RINvNtCscwo6F0TH2eV_17fossil_headers_db3rpc13make_rpc_callINtB2_10RpcRequestTRebEENtB2_31BlockHeaderWithEmptyTransactionECsaImZPb8KXhW_17fossil_headers_db
FNDA:0,_RINvNtCscwo6F0TH2eV_17fossil_headers_db3rpc17send_http_requestINtB2_10RpcRequestTNtNtCs8Ty2CzGA6U3_5alloc6string6StringbEEECsaImZPb8KXhW_17fossil_headers_db
FNDA:0,_RINvNtCscwo6F0TH2eV_17fossil_headers_db3rpc17send_http_requestINtB2_10RpcRequestTRebEEECsaImZPb8KXhW_17fossil_headers_db
FNDA:0,_RINvNtCscwo6F0TH2eV_17fossil_headers_db3rpc18parse_rpc_responseNtB2_30BlockHeaderWithFullTransactionECsaImZPb8KXhW_17fossil_headers_db
FNDA:0,_RINvNtCscwo6F0TH2eV_17fossil_headers_db3rpc18parse_rpc_responseNtB2_31BlockHeaderWithEmptyTransactionECsaImZPb8KXhW_17fossil_headers_db
FNDA:0,_RINvNtCscwo6F0TH2eV_17fossil_headers_db3rpc22make_retrying_rpc_callINtB2_10RpcRequestTNtNtCs8Ty2CzGA6U3_5alloc6string6StringbEENtB2_30BlockHeaderWithFullTransactionECsaImZPb8KXhW_17fossil_headers_db
FNDA:0,_RINvNtCscwo6F0TH2eV_17fossil_headers_db3rpc22make_retrying_rpc_callINtB2_10RpcRequestTRebEENtB2_31BlockHeaderWithEmptyTransactionECsaImZPb8KXhW_17fossil_headers_db
FNDA:0,_RNCINvNtCscwo6F0TH2eV_17fossil_headers_db3rpc13make_rpc_callINtB4_10RpcRequestTNtNtCs8Ty2CzGA6U3_5alloc6string6StringbEENtB4_30BlockHeaderWithFullTransactionE0CsaImZPb8KXhW_17fossil_headers_db
FNDA:0,_RNCINvNtCscwo6F0TH2eV_17fossil_headers_db3rpc13make_rpc_callINtB4_10RpcRequestTRebEENtB4_31BlockHeaderWithEmptyTransactionE0CsaImZPb8KXhW_17fossil_headers_db
FNDA:0,_RNCINvNtCscwo6F0TH2eV_17fossil_headers_db3rpc17send_http_requestINtB4_10RpcRequestTNtNtCs8Ty2CzGA6U3_5alloc6string6StringbEEE0CsaImZPb8KXhW_17fossil_headers_db
FNDA:0,_RNCINvNtCscwo6F0TH2eV_17fossil_headers_db3rpc17send_http_requestINtB4_10RpcRequestTRebEEE0CsaImZPb8KXhW_17fossil_headers_db
FNDA:0,_RNCINvNtCscwo6F0TH2eV_17fossil_headers_db3rpc18parse_rpc_responseNtB4_30BlockHeaderWithFullTransactionE0CsaImZPb8KXhW_17fossil_headers_db
FNDA:0,_RNCINvNtCscwo6F0TH2eV_17fossil_headers_db3rpc18parse_rpc_responseNtB4_31BlockHeaderWithEmptyTransactionE0CsaImZPb8KXhW_17fossil_headers_db
FNDA:0,_RNCINvNtCscwo6F0TH2eV_17fossil_headers_db3rpc22make_retrying_rpc_callINtB4_10RpcRequestTNtNtCs8Ty2CzGA6U3_5alloc6string6StringbEENtB4_30BlockHeaderWithFullTransactionE0CsaImZPb8KXhW_17fossil_headers_db
FNDA:0,_RNCINvNtCscwo6F0TH2eV_17fossil_headers_db3rpc22make_retrying_rpc_callINtB4_10RpcRequestTRebEENtB4_31BlockHeaderWithEmptyTransactionE0CsaImZPb8KXhW_17fossil_headers_db
FNDA:0,_RNCNCINvNtCscwo6F0TH2eV_17fossil_headers_db3rpc17send_http_requestINtB6_10RpcRequestTNtNtCs8Ty2CzGA6U3_5alloc6string6StringbEEE00CsaImZPb8KXhW_17fossil_headers_db
FNDA:0,_RNCNCINvNtCscwo6F0TH2eV_17fossil_headers_db3rpc17send_http_requestINtB6_10RpcRequestTRebEEE00CsaImZPb8KXhW_17fossil_headers_db
FNDA:0,_RNCNCINvNtCscwo6F0TH2eV_17fossil_headers_db3rpc18parse_rpc_responseNtB6_30BlockHeaderWithFullTransactionE00CsaImZPb8KXhW_17fossil_headers_db
FNDA:0,_RNCNCINvNtCscwo6F0TH2eV_17fossil_headers_db3rpc18parse_rpc_responseNtB6_30BlockHeaderWithFullTransactionE0s0_0CsaImZPb8KXhW_17fossil_headers_db
FNDA:0,_RNCNCINvNtCscwo6F0TH2eV_17fossil_headers_db3rpc18parse_rpc_responseNtB6_31BlockHeaderWithEmptyTransactionE00CsaImZPb8KXhW_17fossil_headers_db
FNDA:0,_RNCNCINvNtCscwo6F0TH2eV_17fossil_headers_db3rpc18parse_rpc_responseNtB6_31BlockHeaderWithEmptyTransactionE0s0_0CsaImZPb8KXhW_17fossil_headers_db
FNDA:0,_RNCNCNvNtCscwo6F0TH2eV_17fossil_headers_db3rpc32get_latest_finalized_blocknumber00CsaImZPb8KXhW_17fossil_headers_db
FNDA:0,_RNCNvNtCscwo6F0TH2eV_17fossil_headers_db3rpc24get_full_block_by_number0CsaImZPb8KXhW_17fossil_headers_db
FNDA:0,_RNCNvNtCscwo6F0TH2eV_17fossil_headers_db3rpc32get_latest_finalized_blocknumber0CsaImZPb8KXhW_17fossil_headers_db
FNDA:4,_RNvMs_NtCscwo6F0TH2eV_17fossil_headers_db3rpcNtB4_21EthereumJsonRpcClient3new
FNDA:0,_RNvNtCscwo6F0TH2eV_17fossil_headers_db3rpc21get_connection_string
FNDA:0,_RNvNtCscwo6F0TH2eV_17fossil_headers_db3rpc24get_full_block_by_number
FNDA:5,_RNvNtCscwo6F0TH2eV_17fossil_headers_db3rpc26try_convert_full_tx_vector
FNDA:0,_RNvNtCscwo6F0TH2eV_17fossil_headers_db3rpc30batch_get_full_block_by_number
FNDA:0,_RNvNtCscwo6F0TH2eV_17fossil_headers_db3rpc32get_latest_finalized_blocknumber
FNDA:0,_RNvXNtCscwo6F0TH2eV_17fossil_headers_db3rpcNtB2_11TransactionINtNtCs66KPHxksi63_4core7convert7TryFromNtB2_16BlockTransactionE8try_from
FNDA:15,_RNvXs1_NtCscwo6F0TH2eV_17fossil_headers_db3rpcNtB5_21EthereumJsonRpcClientNtB5_19EthereumRpcProvider24get_full_block_by_number
FNDA:15,_RNvXs1_NtCscwo6F0TH2eV_17fossil_headers_db3rpcNtB5_21EthereumJsonRpcClientNtB5_19EthereumRpcProvider32get_latest_finalized_blocknumber
FNDA:15,_RINvMs0_NtCscwo6F0TH2eV_17fossil_headers_db3rpcNtB6_21EthereumJsonRpcClient13make_rpc_callRINtB6_10RpcRequestTNtNtCs8Ty2CzGA6U3_5alloc6string6StringbEENtB6_11BlockHeaderEB8_
FNDA:16,_RINvMs0_NtCscwo6F0TH2eV_17fossil_headers_db3rpcNtB6_21EthereumJsonRpcClient13make_rpc_callRINtB6_10RpcRequestTRebEENtB6_11BlockHeaderEB8_
FNDA:29,_RINvMs0_NtCscwo6F0TH2eV_17fossil_headers_db3rpcNtB6_21EthereumJsonRpcClient14parse_responseNtB6_11BlockHeaderEB8_
FNDA:15,_RINvMs0_NtCscwo6F0TH2eV_17fossil_headers_db3rpcNtB6_21EthereumJsonRpcClient17send_http_requestRINtB6_10RpcRequestTNtNtCs8Ty2CzGA6U3_5alloc6string6StringbEEEB8_
FNDA:16,_RINvMs0_NtCscwo6F0TH2eV_17fossil_headers_db3rpcNtB6_21EthereumJsonRpcClient17send_http_requestRINtB6_10RpcRequestTRebEEEB8_
FNDA:15,_RINvMs0_NtCscwo6F0TH2eV_17fossil_headers_db3rpcNtB6_21EthereumJsonRpcClient22make_retrying_rpc_callRINtB6_10RpcRequestTNtNtCs8Ty2CzGA6U3_5alloc6string6StringbEENtB6_11BlockHeaderEB8_
FNDA:15,_RINvMs0_NtCscwo6F0TH2eV_17fossil_headers_db3rpcNtB6_21EthereumJsonRpcClient22make_retrying_rpc_callRINtB6_10RpcRequestTRebEENtB6_11BlockHeaderEB8_
FNDA:15,_RNCINvMs0_NtCscwo6F0TH2eV_17fossil_headers_db3rpcNtB8_21EthereumJsonRpcClient13make_rpc_callRINtB8_10RpcRequestTNtNtCs8Ty2CzGA6U3_5alloc6string6StringbEENtB8_11BlockHeaderE0Ba_
FNDA:16,_RNCINvMs0_NtCscwo6F0TH2eV_17fossil_headers_db3rpcNtB8_21EthereumJsonRpcClient13make_rpc_callRINtB8_10RpcRequestTRebEENtB8_11BlockHeaderE0Ba_
FNDA:29,_RNCINvMs0_NtCscwo6F0TH2eV_17fossil_headers_db3rpcNtB8_21EthereumJsonRpcClient14parse_responseNtB8_11BlockHeaderE0Ba_
FNDA:15,_RNCINvMs0_NtCscwo6F0TH2eV_17fossil_headers_db3rpcNtB8_21EthereumJsonRpcClient17send_http_requestRINtB8_10RpcRequestTNtNtCs8Ty2CzGA6U3_5alloc6string6StringbEEE0Ba_
FNDA:16,_RNCINvMs0_NtCscwo6F0TH2eV_17fossil_headers_db3rpcNtB8_21EthereumJsonRpcClient17send_http_requestRINtB8_10RpcRequestTRebEEE0Ba_
FNDA:15,_RNCINvMs0_NtCscwo6F0TH2eV_17fossil_headers_db3rpcNtB8_21EthereumJsonRpcClient22make_retrying_rpc_callRINtB8_10RpcRequestTNtNtCs8Ty2CzGA6U3_5alloc6string6StringbEENtB8_11BlockHeaderE0Ba_
FNDA:15,_RNCINvMs0_NtCscwo6F0TH2eV_17fossil_headers_db3rpcNtB8_21EthereumJsonRpcClient22make_retrying_rpc_callRINtB8_10RpcRequestTRebEENtB8_11BlockHeaderE0Ba_
FNDA:0,_RNCNCINvMs0_NtCscwo6F0TH2eV_17fossil_headers_db3rpcNtBa_21EthereumJsonRpcClient14parse_responseNtBa_11BlockHeaderE00Bc_
FNDA:0,_RNCNCINvMs0_NtCscwo6F0TH2eV_17fossil_headers_db3rpcNtBa_21EthereumJsonRpcClient14parse_responseNtBa_11BlockHeaderE0s0_0Bc_
FNDA:0,_RNCNCINvMs0_NtCscwo6F0TH2eV_17fossil_headers_db3rpcNtBa_21EthereumJsonRpcClient17send_http_requestRINtBa_10RpcRequestTNtNtCs8Ty2CzGA6U3_5alloc6string6StringbEEE00Bc_
FNDA:2,_RNCNCINvMs0_NtCscwo6F0TH2eV_17fossil_headers_db3rpcNtBa_21EthereumJsonRpcClient17send_http_requestRINtBa_10RpcRequestTRebEEE00Bc_
FNDA:0,_RNCNCNvNtCscwo6F0TH2eV_17fossil_headers_db3rpc21get_connection_string00B7_
FNDA:1,_RNCNCNvXs1_NtCscwo6F0TH2eV_17fossil_headers_db3rpcNtB9_21EthereumJsonRpcClientNtB9_19EthereumRpcProvider32get_latest_finalized_blocknumber00Bb_
FNDA:0,_RNCNvNtCscwo6F0TH2eV_17fossil_headers_db3rpc21get_connection_string0B5_
FNDA:0,_RNCNvNtCscwo6F0TH2eV_17fossil_headers_db3rpc21get_connection_strings_0B5_
FNDA:15,_RNCNvXs1_NtCscwo6F0TH2eV_17fossil_headers_db3rpcNtB7_21EthereumJsonRpcClientNtB7_19EthereumRpcProvider24get_full_block_by_number0B9_
FNDA:15,_RNCNvXs1_NtCscwo6F0TH2eV_17fossil_headers_db3rpcNtB7_21EthereumJsonRpcClientNtB7_19EthereumRpcProvider32get_latest_finalized_blocknumber0B9_
FNDA:0,_RINvNtCscwo6F0TH2eV_17fossil_headers_db3rpc13make_rpc_callppEB4_
FNDA:0,_RINvNtCscwo6F0TH2eV_17fossil_headers_db3rpc17send_http_requestpEB4_
FNDA:0,_RINvNtCscwo6F0TH2eV_17fossil_headers_db3rpc18parse_rpc_responsepEB4_
FNDA:0,_RINvNtCscwo6F0TH2eV_17fossil_headers_db3rpc22make_retrying_rpc_callppEB4_
FNDA:0,_RNCINvNtCscwo6F0TH2eV_17fossil_headers_db3rpc13make_rpc_callppE0B6_
FNDA:0,_RNCINvNtCscwo6F0TH2eV_17fossil_headers_db3rpc17send_http_requestpE0B6_
FNDA:0,_RNCINvNtCscwo6F0TH2eV_17fossil_headers_db3rpc18parse_rpc_responsepE0B6_
FNDA:0,_RNCINvNtCscwo6F0TH2eV_17fossil_headers_db3rpc22make_retrying_rpc_callppE0B6_
FNDA:0,_RNCNCINvNtCscwo6F0TH2eV_17fossil_headers_db3rpc17send_http_requestpE00B8_
FNDA:0,_RNCNCINvNtCscwo6F0TH2eV_17fossil_headers_db3rpc18parse_rpc_responsepE00B8_
FNDA:0,_RNCNCINvNtCscwo6F0TH2eV_17fossil_headers_db3rpc18parse_rpc_responsepE0s0_0B8_
FNDA:0,_RNCNCNvNtCscwo6F0TH2eV_17fossil_headers_db3rpc32get_latest_finalized_blocknumber00B7_
FNDA:0,_RNCNvNtCscwo6F0TH2eV_17fossil_headers_db3rpc24get_full_block_by_number0B5_
FNDA:0,_RNCNvNtCscwo6F0TH2eV_17fossil_headers_db3rpc30batch_get_full_block_by_number0B5_
FNDA:0,_RNCNvNtCscwo6F0TH2eV_17fossil_headers_db3rpc32get_latest_finalized_blocknumber0B5_
FNDA:6,_RNvMs_NtCs5Xp1JEPGtUd_17fossil_headers_db3rpcNtB4_21EthereumJsonRpcClient3new
FNDA:24,_RNvNtCs5Xp1JEPGtUd_17fossil_headers_db3rpc26try_convert_full_tx_vector
FNDA:952,_RNvXNtCs5Xp1JEPGtUd_17fossil_headers_db3rpcNtB2_11TransactionINtNtCs66KPHxksi63_4core7convert7TryFromNtB2_16BlockTransactionE8try_from
FNDA:4,_RNvXs1_NtCs5Xp1JEPGtUd_17fossil_headers_db3rpcNtB5_21EthereumJsonRpcClientNtB5_19EthereumRpcProvider24get_full_block_by_number
FNDA:2,_RNvXs1_NtCs5Xp1JEPGtUd_17fossil_headers_db3rpcNtB5_21EthereumJsonRpcClientNtB5_19EthereumRpcProvider32get_latest_finalized_blocknumber
FNDA:0,_RINvNtCs5Xp1JEPGtUd_17fossil_headers_db3rpc13make_rpc_callppEB4_
FNDA:0,_RINvNtCs5Xp1JEPGtUd_17fossil_headers_db3rpc17send_http_requestpEB4_
FNDA:0,_RINvNtCs5Xp1JEPGtUd_17fossil_headers_db3rpc18parse_rpc_responsepEB4_
FNDA:0,_RINvNtCs5Xp1JEPGtUd_17fossil_headers_db3rpc22make_retrying_rpc_callppEB4_
FNDA:0,_RNCINvNtCs5Xp1JEPGtUd_17fossil_headers_db3rpc13make_rpc_callppE0B6_
FNDA:0,_RNCINvNtCs5Xp1JEPGtUd_17fossil_headers_db3rpc17send_http_requestpE0B6_
FNDA:0,_RNCINvNtCs5Xp1JEPGtUd_17fossil_headers_db3rpc18parse_rpc_responsepE0B6_
FNDA:0,_RNCINvNtCs5Xp1JEPGtUd_17fossil_headers_db3rpc22make_retrying_rpc_callppE0B6_
FNDA:0,_RNCNCINvNtCs5Xp1JEPGtUd_17fossil_headers_db3rpc17send_http_requestpE00B8_
FNDA:0,_RNCNCINvNtCs5Xp1JEPGtUd_17fossil_headers_db3rpc18parse_rpc_responsepE00B8_
FNDA:0,_RNCNCINvNtCs5Xp1JEPGtUd_17fossil_headers_db3rpc18parse_rpc_responsepE0s0_0B8_
FNDA:0,_RNCNCNvNtCs5Xp1JEPGtUd_17fossil_headers_db3rpc21get_connection_string00B7_
FNDA:0,_RNCNCNvNtCs5Xp1JEPGtUd_17fossil_headers_db3rpc32get_latest_finalized_blocknumber00B7_
FNDA:0,_RNCNvNtCs5Xp1JEPGtUd_17fossil_headers_db3rpc21get_connection_string0B5_
FNDA:0,_RNCNvNtCs5Xp1JEPGtUd_17fossil_headers_db3rpc21get_connection_strings_0B5_
FNDA:0,_RNCNvNtCs5Xp1JEPGtUd_17fossil_headers_db3rpc24get_full_block_by_number0B5_
FNDA:0,_RNCNvNtCs5Xp1JEPGtUd_17fossil_headers_db3rpc30batch_get_full_block_by_number0B5_
FNDA:0,_RNCNvNtCs5Xp1JEPGtUd_17fossil_headers_db3rpc32get_latest_finalized_blocknumber0B5_
FNDA:0,_RNvNtCs5Xp1JEPGtUd_17fossil_headers_db3rpc21get_connection_string
FNDA:0,_RNvNtCs5Xp1JEPGtUd_17fossil_headers_db3rpc24get_full_block_by_number
FNDA:0,_RNvNtCs5Xp1JEPGtUd_17fossil_headers_db3rpc30batch_get_full_block_by_number
FNDA:0,_RNvNtCs5Xp1JEPGtUd_17fossil_headers_db3rpc32get_latest_finalized_blocknumber
FNDA:6,_RNvNtNtCs5Xp1JEPGtUd_17fossil_headers_db3rpc17integration_tests21start_mock_rpc_server
FNDA:9,_RNvNtNtCs5Xp1JEPGtUd_17fossil_headers_db3rpc17integration_tests22get_fixtures_for_tests
FNDA:1,_RNvNtNtCs5Xp1JEPGtUd_17fossil_headers_db3rpc17integration_testss_25test_try_from_for_full_tx
FNDA:1,_RNvNtNtCs5Xp1JEPGtUd_17fossil_headers_db3rpc17integration_testss_25test_try_into_for_full_tx
FNDA:1,_RNvNtNtCs5Xp1JEPGtUd_17fossil_headers_db3rpc17integration_testss_31test_try_convert_full_tx_vector
FNDA:1,_RNvNtNtCs5Xp1JEPGtUd_17fossil_headers_db3rpc17integration_testss_55test_try_convert_full_tx_vector_should_fail_for_hash_tx
FNDA:1,_RNvNtNtCs5Xp1JEPGtUd_17fossil_headers_db3rpc17integration_testss_68test_try_convert_full_tx_vector_should_be_empty_when_empty_vec_given
FNDA:1939,_RNCNCNCNvNtNtCs5Xp1JEPGtUd_17fossil_headers_db3rpc17integration_tests21start_mock_rpc_server000Bb_
FNDA:532,_RNCNCNCNvNtNtCs5Xp1JEPGtUd_17fossil_headers_db3rpc17integration_tests21start_mock_rpc_server00s0_0Bb_
FNDA:10,_RNCNCNCNvNtNtCs5Xp1JEPGtUd_17fossil_headers_db3rpc17integration_tests21start_mock_rpc_server00s_0Bb_
FNDA:6,_RNCNCNvNtNtCs5Xp1JEPGtUd_17fossil_headers_db3rpc17integration_tests21start_mock_rpc_server00B9_
FNDA:1,_RNCNCNvNtNtCs5Xp1JEPGtUd_17fossil_headers_db3rpc17integration_testss_37test_get_full_block_by_number_with_tx00B9_
FNDA:1,_RNCNCNvNtNtCs5Xp1JEPGtUd_17fossil_headers_db3rpc17integration_testss_37test_get_latest_finalized_blocknumber00B9_
FNDA:1,_RNCNCNvNtNtCs5Xp1JEPGtUd_17fossil_headers_db3rpc17integration_testss_40test_get_full_block_by_number_without_tx00B9_
FNDA:1,_RNCNCNvNtNtCs5Xp1JEPGtUd_17fossil_headers_db3rpc17integration_testss_48test_max_retries_should_affect_number_of_retries00B9_
FNDA:1,_RNCNCNvNtNtCs5Xp1JEPGtUd_17fossil_headers_db3rpc17integration_testss_54test_get_full_block_by_number_should_retry_when_failed00B9_
FNDA:1,_RNCNCNvNtNtCs5Xp1JEPGtUd_17fossil_headers_db3rpc17integration_testss_62test_get_latest_finalized_blocknumber_should_retry_when_failed00B9_
FNDA:6,_RNCNvNtNtCs5Xp1JEPGtUd_17fossil_headers_db3rpc17integration_tests21start_mock_rpc_server0B7_
FNDA:9,_RNCNvNtNtCs5Xp1JEPGtUd_17fossil_headers_db3rpc17integration_tests22get_fixtures_for_tests0B7_
FNDA:1,_RNCNvNtNtCs5Xp1JEPGtUd_17fossil_headers_db3rpc17integration_testss_25test_try_from_for_full_tx0B7_
FNDA:1,_RNCNvNtNtCs5Xp1JEPGtUd_17fossil_headers_db3rpc17integration_testss_25test_try_into_for_full_tx0B7_
FNDA:1,_RNCNvNtNtCs5Xp1JEPGtUd_17fossil_headers_db3rpc17integration_testss_31test_try_convert_full_tx_vector0B7_
FNDA:1,_RNCNvNtNtCs5Xp1JEPGtUd_17fossil_headers_db3rpc17integration_testss_37test_get_full_block_by_number_with_tx0B7_
FNDA:1,_RNCNvNtNtCs5Xp1JEPGtUd_17fossil_headers_db3rpc17integration_testss_37test_get_latest_finalized_blocknumber0B7_
FNDA:1,_RNCNvNtNtCs5Xp1JEPGtUd_17fossil_headers_db3rpc17integration_testss_40test_get_full_block_by_number_without_tx0B7_
FNDA:1,_RNCNvNtNtCs5Xp1JEPGtUd_17fossil_headers_db3rpc17integration_testss_48test_max_retries_should_affect_number_of_retries0B7_
FNDA:1,_RNCNvNtNtCs5Xp1JEPGtUd_17fossil_headers_db3rpc17integration_testss_54test_get_full_block_by_number_should_retry_when_failed0B7_
FNDA:1,_RNCNvNtNtCs5Xp1JEPGtUd_17fossil_headers_db3rpc17integration_testss_55test_try_convert_full_tx_vector_should_fail_for_hash_tx0B7_
FNDA:1,_RNCNvNtNtCs5Xp1JEPGtUd_17fossil_headers_db3rpc17integration_testss_62test_get_latest_finalized_blocknumber_should_retry_when_failed0B7_
FNDA:1,_RNCNvNtNtCs5Xp1JEPGtUd_17fossil_headers_db3rpc17integration_testss_68test_try_convert_full_tx_vector_should_be_empty_when_empty_vec_given0B7_
FNDA:7,_RINvMs0_NtCs5Xp1JEPGtUd_17fossil_headers_db3rpcNtB6_21EthereumJsonRpcClient13make_rpc_callRINtB6_10RpcRequestTNtNtCs8Ty2CzGA6U3_5alloc6string6StringbEENtB6_11BlockHeaderEB8_
FNDA:3,_RINvMs0_NtCs5Xp1JEPGtUd_17fossil_headers_db3rpcNtB6_21EthereumJsonRpcClient13make_rpc_callRINtB6_10RpcRequestTRebEENtB6_11BlockHeaderEB8_
FNDA:10,_RINvMs0_NtCs5Xp1JEPGtUd_17fossil_headers_db3rpcNtB6_21EthereumJsonRpcClient14parse_responseNtB6_11BlockHeaderEB8_
FNDA:7,_RINvMs0_NtCs5Xp1JEPGtUd_17fossil_headers_db3rpcNtB6_21EthereumJsonRpcClient17send_http_requestRINtB6_10RpcRequestTNtNtCs8Ty2CzGA6U3_5alloc6string6StringbEEEB8_
FNDA:3,_RINvMs0_NtCs5Xp1JEPGtUd_17fossil_headers_db3rpcNtB6_21EthereumJsonRpcClient17send_http_requestRINtB6_10RpcRequestTRebEEEB8_
FNDA:4,_RINvMs0_NtCs5Xp1JEPGtUd_17fossil_headers_db3rpcNtB6_21EthereumJsonRpcClient22make_retrying_rpc_callRINtB6_10RpcRequestTNtNtCs8Ty2CzGA6U3_5alloc6string6StringbEENtB6_11BlockHeaderEB8_
FNDA:2,_RINvMs0_NtCs5Xp1JEPGtUd_17fossil_headers_db3rpcNtB6_21EthereumJsonRpcClient22make_retrying_rpc_callRINtB6_10RpcRequestTRebEENtB6_11BlockHeaderEB8_
FNDA:7,_RNCINvMs0_NtCs5Xp1JEPGtUd_17fossil_headers_db3rpcNtB8_21EthereumJsonRpcClient13make_rpc_callRINtB8_10RpcRequestTNtNtCs8Ty2CzGA6U3_5alloc6string6StringbEENtB8_11BlockHeaderE0Ba_
FNDA:3,_RNCINvMs0_NtCs5Xp1JEPGtUd_17fossil_headers_db3rpcNtB8_21EthereumJsonRpcClient13make_rpc_callRINtB8_10RpcRequestTRebEENtB8_11BlockHeaderE0Ba_
FNDA:10,_RNCINvMs0_NtCs5Xp1JEPGtUd_17fossil_headers_db3rpcNtB8_21EthereumJsonRpcClient14parse_responseNtB8_11BlockHeaderE0Ba_
FNDA:7,_RNCINvMs0_NtCs5Xp1JEPGtUd_17fossil_headers_db3rpcNtB8_21EthereumJsonRpcClient17send_http_requestRINtB8_10RpcRequestTNtNtCs8Ty2CzGA6U3_5alloc6string6StringbEEE0Ba_
FNDA:3,_RNCINvMs0_NtCs5Xp1JEPGtUd_17fossil_headers_db3rpcNtB8_21EthereumJsonRpcClient17send_http_requestRINtB8_10RpcRequestTRebEEE0Ba_
FNDA:4,_RNCINvMs0_NtCs5Xp1JEPGtUd_17fossil_headers_db3rpcNtB8_21EthereumJsonRpcClient22make_retrying_rpc_callRINtB8_10RpcRequestTNtNtCs8Ty2CzGA6U3_5alloc6string6StringbEENtB8_11BlockHeaderE0Ba_
FNDA:2,_RNCINvMs0_NtCs5Xp1JEPGtUd_17fossil_headers_db3rpcNtB8_21EthereumJsonRpcClient22make_retrying_rpc_callRINtB8_10RpcRequestTRebEENtB8_11BlockHeaderE0Ba_
FNDA:0,_RNCNCINvMs0_NtCs5Xp1JEPGtUd_17fossil_headers_db3rpcNtBa_21EthereumJsonRpcClient14parse_responseNtBa_11BlockHeaderE00Bc_
FNDA:5,_RNCNCINvMs0_NtCs5Xp1JEPGtUd_17fossil_headers_db3rpcNtBa_21EthereumJsonRpcClient14parse_responseNtBa_11BlockHeaderE0s0_0Bc_
FNDA:0,_RNCNCINvMs0_NtCs5Xp1JEPGtUd_17fossil_headers_db3rpcNtBa_21EthereumJsonRpcClient17send_http_requestRINtBa_10RpcRequestTNtNtCs8Ty2CzGA6U3_5alloc6string6StringbEEE00Bc_
FNDA:0,_RNCNCINvMs0_NtCs5Xp1JEPGtUd_17fossil_headers_db3rpcNtBa_21EthereumJsonRpcClient17send_http_requestRINtBa_10RpcRequestTRebEEE00Bc_
FNDA:0,_RNCNCNvXs1_NtCs5Xp1JEPGtUd_17fossil_headers_db3rpcNtB9_21EthereumJsonRpcClientNtB9_19EthereumRpcProvider32get_latest_finalized_blocknumber00Bb_
FNDA:4,_RNCNvXs1_NtCs5Xp1JEPGtUd_17fossil_headers_db3rpcNtB7_21EthereumJsonRpcClientNtB7_19EthereumRpcProvider24get_full_block_by_number0B9_
FNDA:2,_RNCNvXs1_NtCs5Xp1JEPGtUd_17fossil_headers_db3rpcNtB7_21EthereumJsonRpcClientNtB7_19EthereumRpcProvider32get_latest_finalized_blocknumber0B9_
FNF:65
FNH:42
DA:233,0
DA:235,0
DA:236,0
DA:237,0
DA:238,0
DA:239,0
DA:240,0
DA:242,0
DA:243,0
DA:244,0
DA:245,0
DA:246,0
DA:247,0
DA:248,0
DA:249,0
DA:250,0
DA:252,0
DA:253,0
DA:296,0
DA:297,0
DA:298,0
DA:299,0
DA:300,0
DA:301,0
DA:302,0
DA:303,0
DA:304,0
DA:305,0
DA:307,0
DA:308,0
DA:309,0
DA:310,0
DA:311,0
DA:312,0
DA:313,0
DA:317,0
DA:318,0
DA:319,0
DA:320,0
DA:321,0
DA:322,0
DA:323,0
DA:324,0
DA:325,0
DA:326,0
DA:327,0
DA:328,0
DA:329,0
DA:330,0
DA:331,0
DA:332,0
DA:334,0
DA:335,0
DA:336,0
DA:337,0
DA:338,0
DA:339,0
DA:340,0
DA:341,0
DA:342,0
DA:343,0
DA:344,0
DA:345,0
DA:346,0
DA:348,0
DA:349,0
DA:350,0
DA:351,0
DA:352,0
DA:353,0
DA:354,0
DA:355,0
DA:356,0
DA:358,0
DA:359,0
DA:360,0
DA:361,0
DA:362,0
DA:363,0
DA:365,0
DA:368,0
DA:369,0
DA:370,0
DA:371,0
DA:372,0
DA:374,0
DA:375,0
DA:376,0
DA:377,0
DA:378,0
DA:379,0
DA:380,0
DA:382,0
DA:383,0
DA:384,0
DA:385,0
DA:386,0
DA:389,0
DA:390,0
DA:391,0
DA:393,0
DA:394,0
DA:395,0
DA:396,0
DA:397,0
DA:398,0
DA:399,0
DA:400,0
DA:402,0
DA:403,0
DA:404,0
DA:405,0
DA:406,0
DA:407,0
DA:409,0
DA:410,0
DA:411,0
DA:412,0
DA:413,0
DA:414,0
DA:415,0
DA:416,0
DA:417,0
DA:418,0
DA:419,0
DA:422,0
DA:426,0
DA:437,952
DA:438,952
DA:439,949
DA:440,3
DA:441,3
DA:442,3
DA:444,952
DA:518,10
DA:519,10
DA:520,10
DA:521,10
DA:522,10
DA:523,10
DA:524,10
DA:528,41
DA:529,41
DA:530,41
DA:531,41
DA:532,41
DA:533,41
DA:535,41
DA:536,26
DA:537,26
DA:538,26
DA:539,26
DA:540,26
DA:541,26
DA:542,26
DA:545,15
DA:546,15
DA:547,15
DA:548,15
DA:549,15
DA:553,41
DA:554,2
DA:555,2
DA:556,2
DA:557,41
DA:559,39
DA:560,39
DA:561,39
DA:562,39
DA:563,39
DA:564,0
DA:565,0
DA:566,0
DA:568,39
DA:569,39
DA:570,39
DA:571,5
DA:572,0
DA:575,5
DA:576,5
DA:577,39
DA:579,41
DA:580,41
DA:581,41
DA:582,41
DA:583,41
DA:584,41
DA:585,39
DA:586,41
DA:588,36
DA:589,36
DA:590,36
DA:591,36
DA:592,36
DA:593,36
DA:594,36
DA:595,36
DA:596,36
DA:598,41
DA:599,34
DA:600,7
DA:601,7
DA:602,7
DA:603,2
DA:604,2
DA:605,5
DA:606,5
DA:607,5
DA:608,0
DA:611,5
DA:615,36
DA:619,17
DA:620,17
DA:621,17
DA:622,17
DA:623,17
DA:624,17
DA:625,17
DA:627,17
DA:628,17
DA:629,17
DA:630,17
DA:631,1
DA:632,1
DA:633,16
DA:634,1
DA:636,17
DA:638,19
DA:639,19
DA:640,19
DA:641,19
DA:642,19
DA:643,19
DA:644,19
DA:645,19
DA:646,19
DA:647,19
DA:648,19
DA:649,19
DA:651,19
DA:652,19
DA:653,19
DA:657,29
DA:658,29
DA:660,693
DA:661,666
DA:662,664
DA:665,27
DA:666,29
DA:685,9
DA:686,9
DA:687,9
DA:688,9
DA:689,9
DA:691,9
DA:692,9
DA:694,9
DA:695,9
DA:699,6
DA:702,6
DA:704,6
DA:705,6
DA:706,6
DA:707,6
DA:708,6
DA:709,6
DA:711,6
DA:714,16
DA:717,10
DA:718,10
DA:720,1939
DA:722,10
DA:725,10
DA:729,10
DA:730,10
DA:732,0
DA:736,10
DA:737,10
DA:739,10
DA:740,5
DA:743,5
DA:744,1
DA:748,4
DA:749,4
DA:750,4
DA:751,532
DA:752,532
DA:753,532
DA:755,0
DA:756,532
DA:757,4
DA:762,5
DA:763,5
DA:764,5
DA:765,5
DA:768,5
DA:774,0
DA:778,10
DA:779,10
DA:780,10
DA:781,10
DA:785,10
DA:786,10
DA:787,10
DA:790,6
DA:791,6
DA:794,1
DA:796,1
DA:799,1
DA:801,1
DA:802,0
DA:805,1
DA:807,1
DA:809,1
DA:810,1
DA:811,1
DA:812,1
DA:813,1
DA:814,1
DA:815,1
DA:816,1
DA:817,1
DA:821,1
DA:822,1
DA:823,1
DA:826,1
DA:828,1
DA:831,1
DA:833,1
DA:834,0
DA:837,1
DA:838,1
DA:840,1
DA:842,1
DA:843,1
DA:844,1
DA:845,1
DA:846,1
DA:847,1
DA:848,1
DA:849,1
DA:850,1
DA:854,1
DA:855,1
DA:856,1
DA:859,1
DA:860,1
DA:863,1
DA:864,1
DA:866,1
DA:868,1
DA:869,1
DA:871,1
DA:872,1
DA:873,1
DA:876,1
DA:877,1
DA:878,1
DA:879,1
DA:882,1
DA:883,1
DA:884,1
DA:885,1
DA:886,1
DA:890,2
DA:891,1
DA:892,1
DA:893,1
DA:894,1
DA:898,1
DA:900,1
DA:901,1
DA:903,1
DA:904,1
DA:909,2
DA:910,1
DA:911,1
DA:912,1
DA:913,1
DA:916,1
DA:917,1
DA:918,1
DA:920,1
DA:921,1
DA:922,1
DA:927,2
DA:928,1
DA:929,1
DA:930,1
DA:931,1
DA:934,1
DA:935,1
DA:937,1
DA:938,1
DA:939,1
DA:940,1
DA:941,1
DA:942,1
DA:943,1
DA:948,2
DA:949,1
DA:950,1
DA:951,1
DA:952,1
DA:955,1
DA:956,1
DA:957,1
DA:959,1
DA:960,1
DA:961,1
DA:962,133
DA:963,133
DA:964,133
DA:965,133
DA:966,133
DA:967,1
DA:968,1
DA:969,1
DA:970,1
DA:975,2
DA:976,1
DA:977,1
DA:978,1
DA:979,1
DA:982,1
DA:983,1
DA:984,1
DA:986,1
DA:987,1
DA:988,1
DA:989,133
DA:990,133
DA:991,133
DA:992,133
DA:993,133
DA:994,133
DA:995,1
DA:996,133
DA:997,133
DA:998,133
DA:999,133
DA:1000,133
DA:1001,133
DA:1002,1
DA:1003,1
DA:1004,1
DA:1005,1
DA:1010,2
DA:1011,1
DA:1012,1
DA:1013,1
DA:1014,1
DA:1017,1
DA:1018,1
DA:1020,1
DA:1021,1
DA:1022,1
DA:1023,1
DA:1024,1
DA:1025,1
DA:1026,1
BRF:0
BRH:0
LF:491
LH:334
end_of_record
SF:/home/ametel/source/fossil-headers-db/src/rpc/tests.rs
FN:51,_RNvNtNtNtCs5Xp1JEPGtUd_17fossil_headers_db3rpc5tests10unit_testss_36test_block_transaction_try_from_full
FN:10,_RNvNtNtNtCs5Xp1JEPGtUd_17fossil_headers_db3rpc5tests10unit_testss_39test_try_convert_full_tx_vector_success
FN:44,_RNvNtNtNtCs5Xp1JEPGtUd_17fossil_headers_db3rpc5tests10unit_testss_43test_try_convert_full_tx_vector_empty_input
FN:82,_RNvNtNtNtCs5Xp1JEPGtUd_17fossil_headers_db3rpc5tests10unit_testss_48test_block_transaction_try_from_hash_should_fail
FN:36,_RNvNtNtNtCs5Xp1JEPGtUd_17fossil_headers_db3rpc5tests10unit_testss_53test_try_convert_full_tx_vector_with_hash_should_fail
FN:51,_RNCNvNtNtNtCs5Xp1JEPGtUd_17fossil_headers_db3rpc5tests10unit_testss_36test_block_transaction_try_from_full0B9_
FN:10,_RNCNvNtNtNtCs5Xp1JEPGtUd_17fossil_headers_db3rpc5tests10unit_testss_39test_try_convert_full_tx_vector_success0B9_
FN:44,_RNCNvNtNtNtCs5Xp1JEPGtUd_17fossil_headers_db3rpc5tests10unit_testss_43test_try_convert_full_tx_vector_empty_input0B9_
FN:82,_RNCNvNtNtNtCs5Xp1JEPGtUd_17fossil_headers_db3rpc5tests10unit_testss_48test_block_transaction_try_from_hash_should_fail0B9_
FN:36,_RNCNvNtNtNtCs5Xp1JEPGtUd_17fossil_headers_db3rpc5tests10unit_testss_53test_try_convert_full_tx_vector_with_hash_should_fail0B9_
FNDA:1,_RNvNtNtNtCs5Xp1JEPGtUd_17fossil_headers_db3rpc5tests10unit_testss_36test_block_transaction_try_from_full
FNDA:1,_RNvNtNtNtCs5Xp1JEPGtUd_17fossil_headers_db3rpc5tests10unit_testss_39test_try_convert_full_tx_vector_success
FNDA:1,_RNvNtNtNtCs5Xp1JEPGtUd_17fossil_headers_db3rpc5tests10unit_testss_43test_try_convert_full_tx_vector_empty_input
FNDA:1,_RNvNtNtNtCs5Xp1JEPGtUd_17fossil_headers_db3rpc5tests10unit_testss_48test_block_transaction_try_from_hash_should_fail
FNDA:1,_RNvNtNtNtCs5Xp1JEPGtUd_17fossil_headers_db3rpc5tests10unit_testss_53test_try_convert_full_tx_vector_with_hash_should_fail
FNDA:1,_RNCNvNtNtNtCs5Xp1JEPGtUd_17fossil_headers_db3rpc5tests10unit_testss_36test_block_transaction_try_from_full0B9_
FNDA:1,_RNCNvNtNtNtCs5Xp1JEPGtUd_17fossil_headers_db3rpc5tests10unit_testss_39test_try_convert_full_tx_vector_success0B9_
FNDA:1,_RNCNvNtNtNtCs5Xp1JEPGtUd_17fossil_headers_db3rpc5tests10unit_testss_43test_try_convert_full_tx_vector_empty_input0B9_
FNDA:1,_RNCNvNtNtNtCs5Xp1JEPGtUd_17fossil_headers_db3rpc5tests10unit_testss_48test_block_transaction_try_from_hash_should_fail0B9_
FNDA:1,_RNCNvNtNtNtCs5Xp1JEPGtUd_17fossil_headers_db3rpc5tests10unit_testss_53test_try_convert_full_tx_vector_with_hash_should_fail0B9_
FNF:10
FNH:10
DA:10,1
DA:11,1
DA:12,1
DA:13,1
DA:14,1
DA:15,1
DA:16,1
DA:17,1
DA:18,1
DA:19,1
DA:20,1
DA:21,1
DA:22,1
DA:23,1
DA:25,1
DA:26,1
DA:28,1
DA:29,1
DA:30,1
DA:31,1
DA:32,1
DA:33,1
DA:36,1
DA:37,1
DA:38,1
DA:40,1
DA:41,1
DA:44,1
DA:45,1
DA:46,1
DA:47,1
DA:48,1
DA:51,1
DA:52,1
DA:53,1
DA:54,1
DA:55,1
DA:56,1
DA:57,1
DA:58,1
DA:59,1
DA:60,1
DA:61,1
DA:62,1
DA:63,1
DA:64,1
DA:66,1
DA:67,1
DA:69,1
DA:70,1
DA:71,1
DA:72,1
DA:73,1
DA:74,1
DA:78,1
DA:79,1
DA:82,1
DA:83,1
DA:84,1
DA:86,1
DA:87,1
BRF:0
BRH:0
LF:71
LH:71
end_of_record
SF:/home/ametel/source/fossil-headers-db/src/test_utils.rs
FN:43,_RNCNvNtNtCs5Xp1JEPGtUd_17fossil_headers_db10test_utils9test_data23create_test_block_range0B7_
FN:87,_RNvNtNtCs5Xp1JEPGtUd_17fossil_headers_db10test_utils10assertions22assert_blocks_in_range
FN:75,_RNvNtNtCs5Xp1JEPGtUd_17fossil_headers_db10test_utils10assertions23assert_blocks_ascending
FN:113,_RNvNtNtCs5Xp1JEPGtUd_17fossil_headers_db10test_utils14test_scenarios21create_no_termination
FN:106,_RNvNtNtCs5Xp1JEPGtUd_17fossil_headers_db10test_utils14test_scenarios28create_immediate_termination
FN:52,_RNvNtNtCs5Xp1JEPGtUd_17fossil_headers_db10test_utils9test_data21create_hex_test_cases
FN:41,_RNvNtNtCs5Xp1JEPGtUd_17fossil_headers_db10test_utils9test_data23create_test_block_range
FN:16,_RNvNtNtCs5Xp1JEPGtUd_17fossil_headers_db10test_utils9test_data30create_sample_transaction_full
FN:34,_RNvNtNtCs5Xp1JEPGtUd_17fossil_headers_db10test_utils9test_data30create_sample_transaction_hash
FNDA:0,_RNCNvNtNtCs5Xp1JEPGtUd_17fossil_headers_db10test_utils9test_data23create_test_block_range0B7_
FNDA:0,_RNvNtNtCs5Xp1JEPGtUd_17fossil_headers_db10test_utils10assertions22assert_blocks_in_range
FNDA:0,_RNvNtNtCs5Xp1JEPGtUd_17fossil_headers_db10test_utils10assertions23assert_blocks_ascending
FNDA:0,_RNvNtNtCs5Xp1JEPGtUd_17fossil_headers_db10test_utils14test_scenarios21create_no_termination
FNDA:0,_RNvNtNtCs5Xp1JEPGtUd_17fossil_headers_db10test_utils14test_scenarios28create_immediate_termination
FNDA:0,_RNvNtNtCs5Xp1JEPGtUd_17fossil_headers_db10test_utils9test_data21create_hex_test_cases
FNDA:0,_RNvNtNtCs5Xp1JEPGtUd_17fossil_headers_db10test_utils9test_data23create_test_block_range
FNDA:0,_RNvNtNtCs5Xp1JEPGtUd_17fossil_headers_db10test_utils9test_data30create_sample_transaction_full
FNDA:0,_RNvNtNtCs5Xp1JEPGtUd_17fossil_headers_db10test_utils9test_data30create_sample_transaction_hash
FNF:9
FNH:0
DA:16,0
DA:17,0
DA:18,0
DA:19,0
DA:20,0
DA:21,0
DA:22,0
DA:23,0
DA:24,0
DA:25,0
DA:26,0
DA:27,0
DA:28,0
DA:29,0
DA:30,0
DA:31,0
DA:34,0
DA:35,0
DA:36,0
DA:37,0
DA:38,0
DA:41,0
DA:42,0
DA:43,0
DA:44,0
DA:45,0
DA:47,0
DA:48,0
DA:49,0
DA:52,0
DA:53,0
DA:54,0
DA:55,0
DA:56,0
DA:57,0
DA:58,0
DA:59,0
DA:60,0
DA:61,0
DA:62,0
DA:63,0
DA:64,0
DA:65,0
DA:67,0
DA:75,0
DA:76,0
DA:77,0
DA:78,0
DA:79,0
DA:80,0
DA:81,0
DA:84,0
DA:87,0
DA:88,0
DA:89,0
DA:90,0
DA:91,0
DA:92,0
DA:97,0
DA:106,0
DA:107,0
DA:108,0
DA:109,0
DA:110,0
DA:113,0
DA:114,0
DA:115,0
BRF:0
BRH:0
LF:68
LH:0
end_of_record
SF:/home/ametel/source/fossil-headers-db/src/types.rs
FN:31,_RNvMNtCscwo6F0TH2eV_17fossil_headers_db5typesNtB2_11BlockNumber12from_trusted
FN:13,_RNvMNtCscwo6F0TH2eV_17fossil_headers_db5typesNtB2_11BlockNumber3new
FN:37,_RNvMNtCscwo6F0TH2eV_17fossil_headers_db5typesNtB2_11BlockNumber5value
FN:42,_RNvMNtCscwo6F0TH2eV_17fossil_headers_db5typesNtB2_11BlockNumber8from_hex
FN:129,_RNvMs5_NtCscwo6F0TH2eV_17fossil_headers_db5typesNtB5_9BlockHash10into_value
FN:117,_RNvMs5_NtCscwo6F0TH2eV_17fossil_headers_db5typesNtB5_9BlockHash12from_trusted
FN:133,_RNvMs5_NtCscwo6F0TH2eV_17fossil_headers_db5typesNtB5_9BlockHash17validate_hex_hash
FN:110,_RNvMs5_NtCscwo6F0TH2eV_17fossil_headers_db5typesNtB5_9BlockHash3new
FN:123,_RNvMs5_NtCscwo6F0TH2eV_17fossil_headers_db5typesNtB5_9BlockHash5value
FN:203,_RNvMs9_NtCscwo6F0TH2eV_17fossil_headers_db5typesNtB5_15TransactionHash10into_value
FN:191,_RNvMs9_NtCscwo6F0TH2eV_17fossil_headers_db5typesNtB5_15TransactionHash12from_trusted
FN:207,_RNvMs9_NtCscwo6F0TH2eV_17fossil_headers_db5typesNtB5_15TransactionHash17validate_hex_hash
FN:184,_RNvMs9_NtCscwo6F0TH2eV_17fossil_headers_db5typesNtB5_15TransactionHash3new
FN:197,_RNvMs9_NtCscwo6F0TH2eV_17fossil_headers_db5typesNtB5_15TransactionHash5value
FN:277,_RNvMsd_NtCscwo6F0TH2eV_17fossil_headers_db5typesNtB5_7Address10into_value
FN:265,_RNvMsd_NtCscwo6F0TH2eV_17fossil_headers_db5typesNtB5_7Address12from_trusted
FN:281,_RNvMsd_NtCscwo6F0TH2eV_17fossil_headers_db5typesNtB5_7Address16validate_address
FN:258,_RNvMsd_NtCscwo6F0TH2eV_17fossil_headers_db5typesNtB5_7Address3new
FN:271,_RNvMsd_NtCscwo6F0TH2eV_17fossil_headers_db5typesNtB5_7Address5value
FN:61,_RNvXs0_NtCscwo6F0TH2eV_17fossil_headers_db5typesxINtNtCs66KPHxksi63_4core7convert4FromNtB5_11BlockNumberE4from
FN:69,_RNvXs1_NtCscwo6F0TH2eV_17fossil_headers_db5typesNtB5_11BlockNumberNtNtNtCs66KPHxksi63_4core3str6traits7FromStr8from_str
FN:83,_RNvXs2_NtCscwo6F0TH2eV_17fossil_headers_db5typesNtB5_11BlockNumberINtNtNtCs66KPHxksi63_4core3ops5arith3AddxE3add
FN:91,_RNvXs3_NtCscwo6F0TH2eV_17fossil_headers_db5typesNtB5_11BlockNumberINtNtNtCs66KPHxksi63_4core3ops5arith3SubxE3sub
FN:99,_RNvXs4_NtCscwo6F0TH2eV_17fossil_headers_db5typesNtB5_11BlockNumberNtNtNtCs66KPHxksi63_4core3ops5arith3Sub3sub
FN:159,_RNvXs6_NtCscwo6F0TH2eV_17fossil_headers_db5typesNtB5_9BlockHashNtNtCs66KPHxksi63_4core3fmt7Display3fmt
FN:173,_RNvXs8_NtCscwo6F0TH2eV_17fossil_headers_db5typesNtB5_9BlockHashNtNtNtCs66KPHxksi63_4core3str6traits7FromStr8from_str
FN:55,_RNvXs_NtCscwo6F0TH2eV_17fossil_headers_db5typesNtB4_11BlockNumberNtNtCs66KPHxksi63_4core3fmt7Display3fmt
FN:233,_RNvXsa_NtCscwo6F0TH2eV_17fossil_headers_db5typesNtB5_15TransactionHashNtNtCs66KPHxksi63_4core3fmt7Display3fmt
FN:247,_RNvXsc_NtCscwo6F0TH2eV_17fossil_headers_db5typesNtB5_15TransactionHashNtNtNtCs66KPHxksi63_4core3str6traits7FromStr8from_str
FN:307,_RNvXse_NtCscwo6F0TH2eV_17fossil_headers_db5typesNtB5_7AddressNtNtCs66KPHxksi63_4core3fmt7Display3fmt
FN:321,_RNvXsg_NtCscwo6F0TH2eV_17fossil_headers_db5typesNtB5_7AddressNtNtNtCs66KPHxksi63_4core3str6traits7FromStr8from_str
FN:44,_RNCNvMNtCscwo6F0TH2eV_17fossil_headers_db5typesNtB4_11BlockNumber8from_hex0B6_
FN:147,_RNCNvMs5_NtCscwo6F0TH2eV_17fossil_headers_db5typesNtB7_9BlockHash17validate_hex_hash0B9_
FN:221,_RNCNvMs9_NtCscwo6F0TH2eV_17fossil_headers_db5typesNtB7_15TransactionHash17validate_hex_hash0B9_
FN:295,_RNCNvMsd_NtCscwo6F0TH2eV_17fossil_headers_db5typesNtB7_7Address16validate_address0B9_
FN:70,_RNCNvXs1_NtCscwo6F0TH2eV_17fossil_headers_db5typesNtB7_11BlockNumberNtNtNtCs66KPHxksi63_4core3str6traits7FromStr8from_str0B9_
FN:165,_RNvXs7_NtCscwo6F0TH2eV_17fossil_headers_db5typesNtNtCs8Ty2CzGA6U3_5alloc6string6StringINtNtCs66KPHxksi63_4core7convert4FromNtB5_9BlockHashE4from
FN:239,_RNvXsb_NtCscwo6F0TH2eV_17fossil_headers_db5typesNtNtCs8Ty2CzGA6U3_5alloc6string6StringINtNtCs66KPHxksi63_4core7convert4FromNtB5_15TransactionHashE4from
FN:313,_RNvXsf_NtCscwo6F0TH2eV_17fossil_headers_db5typesNtNtCs8Ty2CzGA6U3_5alloc6string6StringINtNtCs66KPHxksi63_4core7convert4FromNtB5_7AddressE4from
FN:129,_RNvMs5_NtCs5Xp1JEPGtUd_17fossil_headers_db5typesNtB5_9BlockHash10into_value
FN:203,_RNvMs9_NtCs5Xp1JEPGtUd_17fossil_headers_db5typesNtB5_15TransactionHash10into_value
FN:191,_RNvMs9_NtCs5Xp1JEPGtUd_17fossil_headers_db5typesNtB5_15TransactionHash12from_trusted
FN:277,_RNvMsd_NtCs5Xp1JEPGtUd_17fossil_headers_db5typesNtB5_7Address10into_value
FN:31,_RNvMNtCs5Xp1JEPGtUd_17fossil_headers_db5typesNtB2_11BlockNumber12from_trusted
FN:13,_RNvMNtCs5Xp1JEPGtUd_17fossil_headers_db5typesNtB2_11BlockNumber3new
FN:37,_RNvMNtCs5Xp1JEPGtUd_17fossil_headers_db5typesNtB2_11BlockNumber5value
FN:42,_RNvMNtCs5Xp1JEPGtUd_17fossil_headers_db5typesNtB2_11BlockNumber8from_hex
FN:117,_RNvMs5_NtCs5Xp1JEPGtUd_17fossil_headers_db5typesNtB5_9BlockHash12from_trusted
FN:133,_RNvMs5_NtCs5Xp1JEPGtUd_17fossil_headers_db5typesNtB5_9BlockHash17validate_hex_hash
FN:110,_RNvMs5_NtCs5Xp1JEPGtUd_17fossil_headers_db5typesNtB5_9BlockHash3new
FN:123,_RNvMs5_NtCs5Xp1JEPGtUd_17fossil_headers_db5typesNtB5_9BlockHash5value
FN:207,_RNvMs9_NtCs5Xp1JEPGtUd_17fossil_headers_db5typesNtB5_15TransactionHash17validate_hex_hash
FN:184,_RNvMs9_NtCs5Xp1JEPGtUd_17fossil_headers_db5typesNtB5_15TransactionHash3new
FN:197,_RNvMs9_NtCs5Xp1JEPGtUd_17fossil_headers_db5typesNtB5_15TransactionHash5value
FN:265,_RNvMsd_NtCs5Xp1JEPGtUd_17fossil_headers_db5typesNtB5_7Address12from_trusted
FN:281,_RNvMsd_NtCs5Xp1JEPGtUd_17fossil_headers_db5typesNtB5_7Address16validate_address
FN:258,_RNvMsd_NtCs5Xp1JEPGtUd_17fossil_headers_db5typesNtB5_7Address3new
FN:271,_RNvMsd_NtCs5Xp1JEPGtUd_17fossil_headers_db5typesNtB5_7Address5value
FN:61,_RNvXs0_NtCs5Xp1JEPGtUd_17fossil_headers_db5typesxINtNtCs66KPHxksi63_4core7convert4FromNtB5_11BlockNumberE4from
FN:69,_RNvXs1_NtCs5Xp1JEPGtUd_17fossil_headers_db5typesNtB5_11BlockNumberNtNtNtCs66KPHxksi63_4core3str6traits7FromStr8from_str
FN:83,_RNvXs2_NtCs5Xp1JEPGtUd_17fossil_headers_db5typesNtB5_11BlockNumberINtNtNtCs66KPHxksi63_4core3ops5arith3AddxE3add
FN:91,_RNvXs3_NtCs5Xp1JEPGtUd_17fossil_headers_db5typesNtB5_11BlockNumberINtNtNtCs66KPHxksi63_4core3ops5arith3SubxE3sub
FN:99,_RNvXs4_NtCs5Xp1JEPGtUd_17fossil_headers_db5typesNtB5_11BlockNumberNtNtNtCs66KPHxksi63_4core3ops5arith3Sub3sub
FN:159,_RNvXs6_NtCs5Xp1JEPGtUd_17fossil_headers_db5typesNtB5_9BlockHashNtNtCs66KPHxksi63_4core3fmt7Display3fmt
FN:173,_RNvXs8_NtCs5Xp1JEPGtUd_17fossil_headers_db5typesNtB5_9BlockHashNtNtNtCs66KPHxksi63_4core3str6traits7FromStr8from_str
FN:55,_RNvXs_NtCs5Xp1JEPGtUd_17fossil_headers_db5typesNtB4_11BlockNumberNtNtCs66KPHxksi63_4core3fmt7Display3fmt
FN:233,_RNvXsa_NtCs5Xp1JEPGtUd_17fossil_headers_db5typesNtB5_15TransactionHashNtNtCs66KPHxksi63_4core3fmt7Display3fmt
FN:247,_RNvXsc_NtCs5Xp1JEPGtUd_17fossil_headers_db5typesNtB5_15TransactionHashNtNtNtCs66KPHxksi63_4core3str6traits7FromStr8from_str
FN:307,_RNvXse_NtCs5Xp1JEPGtUd_17fossil_headers_db5typesNtB5_7AddressNtNtCs66KPHxksi63_4core3fmt7Display3fmt
FN:321,_RNvXsg_NtCs5Xp1JEPGtUd_17fossil_headers_db5typesNtB5_7AddressNtNtNtCs66KPHxksi63_4core3str6traits7FromStr8from_str
FN:44,_RNCNvMNtCs5Xp1JEPGtUd_17fossil_headers_db5typesNtB4_11BlockNumber8from_hex0B6_
FN:147,_RNCNvMs5_NtCs5Xp1JEPGtUd_17fossil_headers_db5typesNtB7_9BlockHash17validate_hex_hash0B9_
FN:221,_RNCNvMs9_NtCs5Xp1JEPGtUd_17fossil_headers_db5typesNtB7_15TransactionHash17validate_hex_hash0B9_
FN:295,_RNCNvMsd_NtCs5Xp1JEPGtUd_17fossil_headers_db5typesNtB7_7Address16validate_address0B9_
FN:70,_RNCNvXs1_NtCs5Xp1JEPGtUd_17fossil_headers_db5typesNtB7_11BlockNumberNtNtNtCs66KPHxksi63_4core3str6traits7FromStr8from_str0B9_
FN:165,_RNvXs7_NtCs5Xp1JEPGtUd_17fossil_headers_db5typesNtNtCs8Ty2CzGA6U3_5alloc6string6StringINtNtCs66KPHxksi63_4core7convert4FromNtB5_9BlockHashE4from
FN:239,_RNvXsb_NtCs5Xp1JEPGtUd_17fossil_headers_db5typesNtNtCs8Ty2CzGA6U3_5alloc6string6StringINtNtCs66KPHxksi63_4core7convert4FromNtB5_15TransactionHashE4from
FN:313,_RNvXsf_NtCs5Xp1JEPGtUd_17fossil_headers_db5typesNtNtCs8Ty2CzGA6U3_5alloc6string6StringINtNtCs66KPHxksi63_4core7convert4FromNtB5_7AddressE4from
FN:374,_RNvNtNtCs5Xp1JEPGtUd_17fossil_headers_db5types5testss_18test_address_valid
FN:348,_RNvNtNtCs5Xp1JEPGtUd_17fossil_headers_db5types5testss_21test_block_hash_valid
FN:331,_RNvNtNtCs5Xp1JEPGtUd_17fossil_headers_db5types5testss_23test_block_number_valid
FN:387,_RNvNtNtCs5Xp1JEPGtUd_17fossil_headers_db5types5testss_26test_address_invalid_chars
FN:342,_RNvNtNtCs5Xp1JEPGtUd_17fossil_headers_db5types5testss_26test_block_number_from_hex
FN:337,_RNvNtNtCs5Xp1JEPGtUd_17fossil_headers_db5types5testss_26test_block_number_negative
FN:381,_RNvNtNtCs5Xp1JEPGtUd_17fossil_headers_db5types5testss_27test_address_invalid_length
FN:367,_RNvNtNtCs5Xp1JEPGtUd_17fossil_headers_db5types5testss_27test_transaction_hash_valid
FN:361,_RNvNtNtCs5Xp1JEPGtUd_17fossil_headers_db5types5testss_29test_block_hash_invalid_chars
FN:355,_RNvNtNtCs5Xp1JEPGtUd_17fossil_headers_db5types5testss_30test_block_hash_invalid_length
FNDA:29,_RNvMNtCscwo6F0TH2eV_17fossil_headers_db5typesNtB2_11BlockNumber12from_trusted
FNDA:14,_RNvMNtCscwo6F0TH2eV_17fossil_headers_db5typesNtB2_11BlockNumber3new
FNDA:27,_RNvMNtCscwo6F0TH2eV_17fossil_headers_db5typesNtB2_11BlockNumber5value
FNDA:14,_RNvMNtCscwo6F0TH2eV_17fossil_headers_db5typesNtB2_11BlockNumber8from_hex
FNDA:0,_RNvMs5_NtCscwo6F0TH2eV_17fossil_headers_db5typesNtB5_9BlockHash10into_value
FNDA:0,_RNvMs5_NtCscwo6F0TH2eV_17fossil_headers_db5typesNtB5_9BlockHash12from_trusted
FNDA:0,_RNvMs5_NtCscwo6F0TH2eV_17fossil_headers_db5typesNtB5_9BlockHash17validate_hex_hash
FNDA:0,_RNvMs5_NtCscwo6F0TH2eV_17fossil_headers_db5typesNtB5_9BlockHash3new
FNDA:0,_RNvMs5_NtCscwo6F0TH2eV_17fossil_headers_db5typesNtB5_9BlockHash5value
FNDA:0,_RNvMs9_NtCscwo6F0TH2eV_17fossil_headers_db5typesNtB5_15TransactionHash10into_value
FNDA:0,_RNvMs9_NtCscwo6F0TH2eV_17fossil_headers_db5typesNtB5_15TransactionHash12from_trusted
FNDA:0,_RNvMs9_NtCscwo6F0TH2eV_17fossil_headers_db5typesNtB5_15TransactionHash17validate_hex_hash
FNDA:0,_RNvMs9_NtCscwo6F0TH2eV_17fossil_headers_db5typesNtB5_15TransactionHash3new
FNDA:0,_RNvMs9_NtCscwo6F0TH2eV_17fossil_headers_db5typesNtB5_15TransactionHash5value
FNDA:0,_RNvMsd_NtCscwo6F0TH2eV_17fossil_headers_db5typesNtB5_7Address10into_value
FNDA:0,_RNvMsd_NtCscwo6F0TH2eV_17fossil_headers_db5typesNtB5_7Address12from_trusted
FNDA:0,_RNvMsd_NtCscwo6F0TH2eV_17fossil_headers_db5typesNtB5_7Address16validate_address
FNDA:0,_RNvMsd_NtCscwo6F0TH2eV_17fossil_headers_db5typesNtB5_7Address3new
FNDA:0,_RNvMsd_NtCscwo6F0TH2eV_17fossil_headers_db5typesNtB5_7Address5value
FNDA:0,_RNvXs0_NtCscwo6F0TH2eV_17fossil_headers_db5typesxINtNtCs66KPHxksi63_4core7convert4FromNtB5_11BlockNumberE4from
FNDA:0,_RNvXs1_NtCscwo6F0TH2eV_17fossil_headers_db5typesNtB5_11BlockNumberNtNtNtCs66KPHxksi63_4core3str6traits7FromStr8from_str
FNDA:0,_RNvXs2_NtCscwo6F0TH2eV_17fossil_headers_db5typesNtB5_11BlockNumberINtNtNtCs66KPHxksi63_4core3ops5arith3AddxE3add
FNDA:3,_RNvXs3_NtCscwo6F0TH2eV_17fossil_headers_db5typesNtB5_11BlockNumberINtNtNtCs66KPHxksi63_4core3ops5arith3SubxE3sub
FNDA:0,_RNvXs4_NtCscwo6F0TH2eV_17fossil_headers_db5typesNtB5_11BlockNumberNtNtNtCs66KPHxksi63_4core3ops5arith3Sub3sub
FNDA:0,_RNvXs6_NtCscwo6F0TH2eV_17fossil_headers_db5typesNtB5_9BlockHashNtNtCs66KPHxksi63_4core3fmt7Display3fmt
FNDA:0,_RNvXs8_NtCscwo6F0TH2eV_17fossil_headers_db5typesNtB5_9BlockHashNtNtNtCs66KPHxksi63_4core3str6traits7FromStr8from_str
FNDA:0,_RNvXs_NtCscwo6F0TH2eV_17fossil_headers_db5typesNtB4_11BlockNumberNtNtCs66KPHxksi63_4core3fmt7Display3fmt
FNDA:0,_RNvXsa_NtCscwo6F0TH2eV_17fossil_headers_db5typesNtB5_15TransactionHashNtNtCs66KPHxksi63_4core3fmt7Display3fmt
FNDA:0,_RNvXsc_NtCscwo6F0TH2eV_17fossil_headers_db5typesNtB5_15TransactionHashNtNtNtCs66KPHxksi63_4core3str6traits7FromStr8from_str
FNDA:0,_RNvXse_NtCscwo6F0TH2eV_17fossil_headers_db5typesNtB5_7AddressNtNtCs66KPHxksi63_4core3fmt7Display3fmt
FNDA:0,_RNvXsg_NtCscwo6F0TH2eV_17fossil_headers_db5typesNtB5_7AddressNtNtNtCs66KPHxksi63_4core3str6traits7FromStr8from_str
FNDA:0,_RNCNvMNtCscwo6F0TH2eV_17fossil_headers_db5typesNtB4_11BlockNumber8from_hex0B6_
FNDA:0,_RNCNvMs5_NtCscwo6F0TH2eV_17fossil_headers_db5typesNtB7_9BlockHash17validate_hex_hash0B9_
FNDA:0,_RNCNvMs9_NtCscwo6F0TH2eV_17fossil_headers_db5typesNtB7_15TransactionHash17validate_hex_hash0B9_
FNDA:0,_RNCNvMsd_NtCscwo6F0TH2eV_17fossil_headers_db5typesNtB7_7Address16validate_address0B9_
FNDA:0,_RNCNvXs1_NtCscwo6F0TH2eV_17fossil_headers_db5typesNtB7_11BlockNumberNtNtNtCs66KPHxksi63_4core3str6traits7FromStr8from_str0B9_
FNDA:0,_RNvXs7_NtCscwo6F0TH2eV_17fossil_headers_db5typesNtNtCs8Ty2CzGA6U3_5alloc6string6StringINtNtCs66KPHxksi63_4core7convert4FromNtB5_9BlockHashE4from
FNDA:0,_RNvXsb_NtCscwo6F0TH2eV_17fossil_headers_db5typesNtNtCs8Ty2CzGA6U3_5alloc6string6StringINtNtCs66KPHxksi63_4core7convert4FromNtB5_15TransactionHashE4from
FNDA:0,_RNvXsf_NtCscwo6F0TH2eV_17fossil_headers_db5typesNtNtCs8Ty2CzGA6U3_5alloc6string6StringINtNtCs66KPHxksi63_4core7convert4FromNtB5_7AddressE4from
FNDA:0,_RNvMs5_NtCs5Xp1JEPGtUd_17fossil_headers_db5typesNtB5_9BlockHash10into_value
FNDA:0,_RNvMs9_NtCs5Xp1JEPGtUd_17fossil_headers_db5typesNtB5_15TransactionHash10into_value
FNDA:0,_RNvMs9_NtCs5Xp1JEPGtUd_17fossil_headers_db5typesNtB5_15TransactionHash12from_trusted
FNDA:0,_RNvMsd_NtCs5Xp1JEPGtUd_17fossil_headers_db5typesNtB5_7Address10into_value
FNDA:1623,_RNvMNtCs5Xp1JEPGtUd_17fossil_headers_db5typesNtB2_11BlockNumber12from_trusted
FNDA:3196,_RNvMNtCs5Xp1JEPGtUd_17fossil_headers_db5typesNtB2_11BlockNumber3new
FNDA:3350,_RNvMNtCs5Xp1JEPGtUd_17fossil_headers_db5typesNtB2_11BlockNumber5value
FNDA:773,_RNvMNtCs5Xp1JEPGtUd_17fossil_headers_db5typesNtB2_11BlockNumber8from_hex
FNDA:256,_RNvMs5_NtCs5Xp1JEPGtUd_17fossil_headers_db5typesNtB5_9BlockHash12from_trusted
FNDA:3203,_RNvMs5_NtCs5Xp1JEPGtUd_17fossil_headers_db5typesNtB5_9BlockHash17validate_hex_hash
FNDA:3203,_RNvMs5_NtCs5Xp1JEPGtUd_17fossil_headers_db5typesNtB5_9BlockHash3new
FNDA:1025,_RNvMs5_NtCs5Xp1JEPGtUd_17fossil_headers_db5typesNtB5_9BlockHash5value
FNDA:2433,_RNvMs9_NtCs5Xp1JEPGtUd_17fossil_headers_db5typesNtB5_15TransactionHash17validate_hex_hash
FNDA:2433,_RNvMs9_NtCs5Xp1JEPGtUd_17fossil_headers_db5typesNtB5_15TransactionHash3new
FNDA:513,_RNvMs9_NtCs5Xp1JEPGtUd_17fossil_headers_db5typesNtB5_15TransactionHash5value
FNDA:256,_RNvMsd_NtCs5Xp1JEPGtUd_17fossil_headers_db5typesNtB5_7Address12from_trusted
FNDA:2676,_RNvMsd_NtCs5Xp1JEPGtUd_17fossil_headers_db5typesNtB5_7Address16validate_address
FNDA:2676,_RNvMsd_NtCs5Xp1JEPGtUd_17fossil_headers_db5typesNtB5_7Address3new
FNDA:1025,_RNvMsd_NtCs5Xp1JEPGtUd_17fossil_headers_db5typesNtB5_7Address5value
FNDA:256,_RNvXs0_NtCs5Xp1JEPGtUd_17fossil_headers_db5typesxINtNtCs66KPHxksi63_4core7convert4FromNtB5_11BlockNumberE4from
FNDA:256,_RNvXs1_NtCs5Xp1JEPGtUd_17fossil_headers_db5typesNtB5_11BlockNumberNtNtNtCs66KPHxksi63_4core3str6traits7FromStr8from_str
FNDA:256,_RNvXs2_NtCs5Xp1JEPGtUd_17fossil_headers_db5typesNtB5_11BlockNumberINtNtNtCs66KPHxksi63_4core3ops5arith3AddxE3add
FNDA:132,_RNvXs3_NtCs5Xp1JEPGtUd_17fossil_headers_db5typesNtB5_11BlockNumberINtNtNtCs66KPHxksi63_4core3ops5arith3SubxE3sub
FNDA:392,_RNvXs4_NtCs5Xp1JEPGtUd_17fossil_headers_db5typesNtB5_11BlockNumberNtNtNtCs66KPHxksi63_4core3ops5arith3Sub3sub
FNDA:256,_RNvXs6_NtCs5Xp1JEPGtUd_17fossil_headers_db5typesNtB5_9BlockHashNtNtCs66KPHxksi63_4core3fmt7Display3fmt
FNDA:256,_RNvXs8_NtCs5Xp1JEPGtUd_17fossil_headers_db5typesNtB5_9BlockHashNtNtNtCs66KPHxksi63_4core3str6traits7FromStr8from_str
FNDA:256,_RNvXs_NtCs5Xp1JEPGtUd_17fossil_headers_db5typesNtB4_11BlockNumberNtNtCs66KPHxksi63_4core3fmt7Display3fmt
FNDA:256,_RNvXsa_NtCs5Xp1JEPGtUd_17fossil_headers_db5typesNtB5_15TransactionHashNtNtCs66KPHxksi63_4core3fmt7Display3fmt
FNDA:256,_RNvXsc_NtCs5Xp1JEPGtUd_17fossil_headers_db5typesNtB5_15TransactionHashNtNtNtCs66KPHxksi63_4core3str6traits7FromStr8from_str
FNDA:256,_RNvXse_NtCs5Xp1JEPGtUd_17fossil_headers_db5typesNtB5_7AddressNtNtCs66KPHxksi63_4core3fmt7Display3fmt
FNDA:256,_RNvXsg_NtCs5Xp1JEPGtUd_17fossil_headers_db5typesNtB5_7AddressNtNtNtCs66KPHxksi63_4core3str6traits7FromStr8from_str
FNDA:514,_RNCNvMNtCs5Xp1JEPGtUd_17fossil_headers_db5typesNtB4_11BlockNumber8from_hex0B6_
FNDA:139264,_RNCNvMs5_NtCs5Xp1JEPGtUd_17fossil_headers_db5typesNtB7_9BlockHash17validate_hex_hash0B9_
FNDA:122816,_RNCNvMs9_NtCs5Xp1JEPGtUd_17fossil_headers_db5typesNtB7_15TransactionHash17validate_hex_hash0B9_
FNDA:86440,_RNCNvMsd_NtCs5Xp1JEPGtUd_17fossil_headers_db5typesNtB7_7Address16validate_address0B9_
FNDA:0,_RNCNvXs1_NtCs5Xp1JEPGtUd_17fossil_headers_db5typesNtB7_11BlockNumberNtNtNtCs66KPHxksi63_4core3str6traits7FromStr8from_str0B9_
FNDA:256,_RNvXs7_NtCs5Xp1JEPGtUd_17fossil_headers_db5typesNtNtCs8Ty2CzGA6U3_5alloc6string6StringINtNtCs66KPHxksi63_4core7convert4FromNtB5_9BlockHashE4from
FNDA:256,_RNvXsb_NtCs5Xp1JEPGtUd_17fossil_headers_db5typesNtNtCs8Ty2CzGA6U3_5alloc6string6StringINtNtCs66KPHxksi63_4core7convert4FromNtB5_15TransactionHashE4from
FNDA:256,_RNvXsf_NtCs5Xp1JEPGtUd_17fossil_headers_db5typesNtNtCs8Ty2CzGA6U3_5alloc6string6StringINtNtCs66KPHxksi63_4core7convert4FromNtB5_7AddressE4from
FNDA:1,_RNvNtNtCs5Xp1JEPGtUd_17fossil_headers_db5types5testss_18test_address_valid
FNDA:1,_RNvNtNtCs5Xp1JEPGtUd_17fossil_headers_db5types5testss_21test_block_hash_valid
FNDA:1,_RNvNtNtCs5Xp1JEPGtUd_17fossil_headers_db5types5testss_23test_block_number_valid
FNDA:1,_RNvNtNtCs5Xp1JEPGtUd_17fossil_headers_db5types5testss_26test_address_invalid_chars
FNDA:1,_RNvNtNtCs5Xp1JEPGtUd_17fossil_headers_db5types5testss_26test_block_number_from_hex
FNDA:1,_RNvNtNtCs5Xp1JEPGtUd_17fossil_headers_db5types5testss_26test_block_number_negative
FNDA:1,_RNvNtNtCs5Xp1JEPGtUd_17fossil_headers_db5types5testss_27test_address_invalid_length
FNDA:1,_RNvNtNtCs5Xp1JEPGtUd_17fossil_headers_db5types5testss_27test_transaction_hash_valid
FNDA:1,_RNvNtNtCs5Xp1JEPGtUd_17fossil_headers_db5types5testss_29test_block_hash_invalid_chars
FNDA:1,_RNvNtNtCs5Xp1JEPGtUd_17fossil_headers_db5types5testss_30test_block_hash_invalid_length
FNF:49
FNH:44
DA:13,3210
DA:14,3210
DA:15,124
DA:16,124
DA:17,124
DA:18,124
DA:19,3086
DA:20,3086
DA:21,134
DA:22,134
DA:23,134
DA:24,134
DA:25,2952
DA:26,2952
DA:27,3210
DA:31,1652
DA:32,1652
DA:33,1652
DA:37,3377
DA:38,3377
DA:39,3377
DA:42,787
DA:43,787
DA:44,787
DA:45,514
DA:46,514
DA:47,514
DA:49,514
DA:50,273
DA:51,787
DA:55,256
DA:56,256
DA:57,256
DA:61,256
DA:62,256
DA:63,256
DA:69,256
DA:70,256
DA:71,0
DA:72,0
DA:73,0
DA:75,0
DA:76,256
DA:77,256
DA:83,256
DA:84,256
DA:85,256
DA:91,135
DA:92,135
DA:93,135
DA:99,392
DA:100,392
DA:101,392
DA:110,3203
DA:111,3203
DA:112,2175
DA:113,3203
DA:117,256
DA:118,256
DA:119,256
DA:123,1025
DA:124,1025
DA:125,1025
DA:129,0
DA:130,0
DA:131,0
DA:133,3203
DA:134,3203
DA:136,3203
DA:137,1027
DA:138,1027
DA:139,1027
DA:140,1027
DA:141,1027
DA:142,1027
DA:143,1027
DA:144,1027
DA:145,2176
DA:147,139264
DA:148,1
DA:149,1
DA:150,1
DA:151,1
DA:152,2175
DA:154,2175
DA:155,3203
DA:159,256
DA:160,256
DA:161,256
DA:165,256
DA:166,256
DA:167,256
DA:173,256
DA:174,256
DA:175,256
DA:184,2433
DA:185,2433
DA:186,1919
DA:187,2433
DA:191,0
DA:192,0
DA:193,0
DA:197,513
DA:198,513
DA:199,513
DA:203,0
DA:204,0
DA:205,0
DA:207,2433
DA:208,2433
DA:210,2433
DA:211,514
DA:212,514
DA:213,514
DA:214,514
DA:215,514
DA:216,514
DA:217,514
DA:218,514
DA:219,1919
DA:221,122816
DA:222,0
DA:223,0
DA:224,0
DA:225,0
DA:226,1919
DA:228,1919
DA:229,2433
DA:233,256
DA:234,256
DA:235,256
DA:239,256
DA:240,256
DA:241,256
DA:247,256
DA:248,256
DA:249,256
DA:258,2676
DA:259,2676
DA:260,2160
DA:261,2676
DA:265,256
DA:266,256
DA:267,256
DA:271,1025
DA:272,1025
DA:273,1025
DA:277,0
DA:278,0
DA:279,0
DA:281,2676
DA:282,2676
DA:284,2676
DA:285,515
DA:286,515
DA:287,515
DA:288,515
DA:289,515
DA:290,515
DA:291,515
DA:292,515
DA:293,2161
DA:295,86440
DA:296,1
DA:297,1
DA:298,1
DA:299,1
DA:300,2160
DA:302,2160
DA:303,2676
DA:307,256
DA:308,256
DA:309,256
DA:313,256
DA:314,256
DA:315,256
DA:321,256
DA:322,256
DA:323,256
DA:331,1
DA:332,1
DA:333,1
DA:334,1
DA:337,1
DA:338,1
DA:339,1
DA:342,1
DA:343,1
DA:344,1
DA:345,1
DA:348,1
DA:349,1
DA:350,1
DA:351,1
DA:352,1
DA:355,1
DA:356,1
DA:357,1
DA:358,1
DA:361,1
DA:362,1
DA:363,1
DA:364,1
DA:367,1
DA:368,1
DA:369,1
DA:370,1
DA:371,1
DA:374,1
DA:375,1
DA:376,1
DA:377,1
DA:378,1
DA:381,1
DA:382,1
DA:383,1
DA:384,1
DA:387,1
DA:388,1
DA:389,1
DA:390,1
BRF:0
BRH:0
LF:228
LH:206
end_of_record
SF:/home/ametel/source/fossil-headers-db/src/utils.rs
FN:8,_RNvNtCscwo6F0TH2eV_17fossil_headers_db5utils25convert_hex_string_to_i32
FN:3,_RNvNtCscwo6F0TH2eV_17fossil_headers_db5utils25convert_hex_string_to_i64
FN:10,_RNCNvNtCscwo6F0TH2eV_17fossil_headers_db5utils25convert_hex_string_to_i320B5_
FN:5,_RNCNvNtCscwo6F0TH2eV_17fossil_headers_db5utils25convert_hex_string_to_i640B5_
FN:38,_RNvNtNtCs5Xp1JEPGtUd_17fossil_headers_db5utils5testss_30test_convert_hex_string_to_i32
FN:18,_RNvNtNtCs5Xp1JEPGtUd_17fossil_headers_db5utils5testss_30test_convert_hex_string_to_i64
FN:45,_RNvNtNtCs5Xp1JEPGtUd_17fossil_headers_db5utils5testss_38test_convert_hex_string_to_i32_invalid
FN:25,_RNvNtNtCs5Xp1JEPGtUd_17fossil_headers_db5utils5testss_38test_convert_hex_string_to_i64_invalid
FN:51,_RNvNtNtCs5Xp1JEPGtUd_17fossil_headers_db5utils5testss_40test_convert_hex_string_to_i32_no_prefix
FN:31,_RNvNtNtCs5Xp1JEPGtUd_17fossil_headers_db5utils5testss_40test_convert_hex_string_to_i64_no_prefix
FN:10,_RNCNvNtCs5Xp1JEPGtUd_17fossil_headers_db5utils25convert_hex_string_to_i320B5_
FN:5,_RNCNvNtCs5Xp1JEPGtUd_17fossil_headers_db5utils25convert_hex_string_to_i640B5_
FN:8,_RNvNtCs5Xp1JEPGtUd_17fossil_headers_db5utils25convert_hex_string_to_i32
FN:3,_RNvNtCs5Xp1JEPGtUd_17fossil_headers_db5utils25convert_hex_string_to_i64
FNDA:0,_RNvNtCscwo6F0TH2eV_17fossil_headers_db5utils25convert_hex_string_to_i32
FNDA:114,_RNvNtCscwo6F0TH2eV_17fossil_headers_db5utils25convert_hex_string_to_i64
FNDA:0,_RNCNvNtCscwo6F0TH2eV_17fossil_headers_db5utils25convert_hex_string_to_i320B5_
FNDA:0,_RNCNvNtCscwo6F0TH2eV_17fossil_headers_db5utils25convert_hex_string_to_i640B5_
FNDA:1,_RNvNtNtCs5Xp1JEPGtUd_17fossil_headers_db5utils5testss_30test_convert_hex_string_to_i32
FNDA:1,_RNvNtNtCs5Xp1JEPGtUd_17fossil_headers_db5utils5testss_30test_convert_hex_string_to_i64
FNDA:1,_RNvNtNtCs5Xp1JEPGtUd_17fossil_headers_db5utils5testss_38test_convert_hex_string_to_i32_invalid
FNDA:1,_RNvNtNtCs5Xp1JEPGtUd_17fossil_headers_db5utils5testss_38test_convert_hex_string_to_i64_invalid
FNDA:1,_RNvNtNtCs5Xp1JEPGtUd_17fossil_headers_db5utils5testss_40test_convert_hex_string_to_i32_no_prefix
FNDA:1,_RNvNtNtCs5Xp1JEPGtUd_17fossil_headers_db5utils5testss_40test_convert_hex_string_to_i64_no_prefix
FNDA:2,_RNCNvNtCs5Xp1JEPGtUd_17fossil_headers_db5utils25convert_hex_string_to_i320B5_
FNDA:9,_RNCNvNtCs5Xp1JEPGtUd_17fossil_headers_db5utils25convert_hex_string_to_i640B5_
FNDA:679,_RNvNtCs5Xp1JEPGtUd_17fossil_headers_db5utils25convert_hex_string_to_i32
FNDA:945,_RNvNtCs5Xp1JEPGtUd_17fossil_headers_db5utils25convert_hex_string_to_i64
FNF:10
FNH:10
DA:3,1059
DA:4,1059
DA:5,1059
DA:6,1059
DA:8,679
DA:9,679
DA:10,679
DA:11,679
DA:18,1
DA:19,1
DA:20,1
DA:21,1
DA:22,1
DA:25,1
DA:26,1
DA:27,1
DA:28,1
DA:31,1
DA:32,1
DA:33,1
DA:34,1
DA:35,1
DA:38,1
DA:39,1
DA:40,1
DA:41,1
DA:42,1
DA:45,1
DA:46,1
DA:47,1
DA:48,1
DA:51,1
DA:52,1
DA:53,1
DA:54,1
DA:55,1
BRF:0
BRH:0
LF:38
LH:38
end_of_record